
C:\Users\Utilizador\AppData\Local\arduino\sketches\5F08C5C135911F03426255C71D028ABF/PROGv1.ino.elf:     file format elf32-avr


Disassembly of section .text:

00000000 <__vectors>:
__vectors():
       0:	0c 94 34 00 	jmp	0x68	; 0x68 <__ctors_end>
       4:	0c 94 51 00 	jmp	0xa2	; 0xa2 <__bad_interrupt>
       8:	0c 94 51 00 	jmp	0xa2	; 0xa2 <__bad_interrupt>
       c:	0c 94 51 00 	jmp	0xa2	; 0xa2 <__bad_interrupt>
      10:	0c 94 af 01 	jmp	0x35e	; 0x35e <__vector_4>
      14:	0c 94 51 00 	jmp	0xa2	; 0xa2 <__bad_interrupt>
      18:	0c 94 51 00 	jmp	0xa2	; 0xa2 <__bad_interrupt>
      1c:	0c 94 51 00 	jmp	0xa2	; 0xa2 <__bad_interrupt>
      20:	0c 94 51 00 	jmp	0xa2	; 0xa2 <__bad_interrupt>
      24:	0c 94 51 00 	jmp	0xa2	; 0xa2 <__bad_interrupt>
      28:	0c 94 51 00 	jmp	0xa2	; 0xa2 <__bad_interrupt>
      2c:	0c 94 51 00 	jmp	0xa2	; 0xa2 <__bad_interrupt>
      30:	0c 94 51 00 	jmp	0xa2	; 0xa2 <__bad_interrupt>
      34:	0c 94 51 00 	jmp	0xa2	; 0xa2 <__bad_interrupt>
      38:	0c 94 eb 01 	jmp	0x3d6	; 0x3d6 <__vector_14>
      3c:	0c 94 51 00 	jmp	0xa2	; 0xa2 <__bad_interrupt>
      40:	0c 94 51 00 	jmp	0xa2	; 0xa2 <__bad_interrupt>
      44:	0c 94 51 00 	jmp	0xa2	; 0xa2 <__bad_interrupt>
      48:	0c 94 51 00 	jmp	0xa2	; 0xa2 <__bad_interrupt>
      4c:	0c 94 51 00 	jmp	0xa2	; 0xa2 <__bad_interrupt>
      50:	0c 94 51 00 	jmp	0xa2	; 0xa2 <__bad_interrupt>
      54:	0c 94 51 00 	jmp	0xa2	; 0xa2 <__bad_interrupt>
      58:	0c 94 51 00 	jmp	0xa2	; 0xa2 <__bad_interrupt>
      5c:	0c 94 51 00 	jmp	0xa2	; 0xa2 <__bad_interrupt>
      60:	0c 94 51 00 	jmp	0xa2	; 0xa2 <__bad_interrupt>
      64:	0c 94 51 00 	jmp	0xa2	; 0xa2 <__bad_interrupt>

00000068 <__ctors_end>:
__trampolines_start():
      68:	11 24       	eor	r1, r1
      6a:	1f be       	out	0x3f, r1	; 63
      6c:	cf ef       	ldi	r28, 0xFF	; 255
      6e:	d8 e0       	ldi	r29, 0x08	; 8
      70:	de bf       	out	0x3e, r29	; 62
      72:	cd bf       	out	0x3d, r28	; 61

00000074 <__do_copy_data>:
__do_copy_data():
/home/jenkins-mingw32/workspace/avr-gcc-staging/label/Ubuntu14.04x64-mingw32/gcc-build/avr/avr5/libgcc/../../../../gcc/libgcc/config/avr/lib1funcs.S:2409
      74:	11 e0       	ldi	r17, 0x01	; 1
/home/jenkins-mingw32/workspace/avr-gcc-staging/label/Ubuntu14.04x64-mingw32/gcc-build/avr/avr5/libgcc/../../../../gcc/libgcc/config/avr/lib1funcs.S:2410
      76:	a0 e0       	ldi	r26, 0x00	; 0
/home/jenkins-mingw32/workspace/avr-gcc-staging/label/Ubuntu14.04x64-mingw32/gcc-build/avr/avr5/libgcc/../../../../gcc/libgcc/config/avr/lib1funcs.S:2411
      78:	b1 e0       	ldi	r27, 0x01	; 1
/home/jenkins-mingw32/workspace/avr-gcc-staging/label/Ubuntu14.04x64-mingw32/gcc-build/avr/avr5/libgcc/../../../../gcc/libgcc/config/avr/lib1funcs.S:2412
      7a:	e4 ee       	ldi	r30, 0xE4	; 228
/home/jenkins-mingw32/workspace/avr-gcc-staging/label/Ubuntu14.04x64-mingw32/gcc-build/avr/avr5/libgcc/../../../../gcc/libgcc/config/avr/lib1funcs.S:2413
      7c:	f3 e1       	ldi	r31, 0x13	; 19
/home/jenkins-mingw32/workspace/avr-gcc-staging/label/Ubuntu14.04x64-mingw32/gcc-build/avr/avr5/libgcc/../../../../gcc/libgcc/config/avr/lib1funcs.S:2414
      7e:	02 c0       	rjmp	.+4      	; 0x84 <__do_copy_data+0x10>
/home/jenkins-mingw32/workspace/avr-gcc-staging/label/Ubuntu14.04x64-mingw32/gcc-build/avr/avr5/libgcc/../../../../gcc/libgcc/config/avr/lib1funcs.S:2417
      80:	05 90       	lpm	r0, Z+
/home/jenkins-mingw32/workspace/avr-gcc-staging/label/Ubuntu14.04x64-mingw32/gcc-build/avr/avr5/libgcc/../../../../gcc/libgcc/config/avr/lib1funcs.S:2422
      82:	0d 92       	st	X+, r0
/home/jenkins-mingw32/workspace/avr-gcc-staging/label/Ubuntu14.04x64-mingw32/gcc-build/avr/avr5/libgcc/../../../../gcc/libgcc/config/avr/lib1funcs.S:2424
      84:	ac 36       	cpi	r26, 0x6C	; 108
/home/jenkins-mingw32/workspace/avr-gcc-staging/label/Ubuntu14.04x64-mingw32/gcc-build/avr/avr5/libgcc/../../../../gcc/libgcc/config/avr/lib1funcs.S:2425
      86:	b1 07       	cpc	r27, r17
/home/jenkins-mingw32/workspace/avr-gcc-staging/label/Ubuntu14.04x64-mingw32/gcc-build/avr/avr5/libgcc/../../../../gcc/libgcc/config/avr/lib1funcs.S:2426
      88:	d9 f7       	brne	.-10     	; 0x80 <__do_copy_data+0xc>

0000008a <__do_clear_bss>:
__do_clear_bss():
/home/jenkins-mingw32/workspace/avr-gcc-staging/label/Ubuntu14.04x64-mingw32/gcc-build/avr/avr5/libgcc/../../../../gcc/libgcc/config/avr/lib1funcs.S:2441
      8a:	21 e0       	ldi	r18, 0x01	; 1
/home/jenkins-mingw32/workspace/avr-gcc-staging/label/Ubuntu14.04x64-mingw32/gcc-build/avr/avr5/libgcc/../../../../gcc/libgcc/config/avr/lib1funcs.S:2442
      8c:	ac e6       	ldi	r26, 0x6C	; 108
/home/jenkins-mingw32/workspace/avr-gcc-staging/label/Ubuntu14.04x64-mingw32/gcc-build/avr/avr5/libgcc/../../../../gcc/libgcc/config/avr/lib1funcs.S:2443
      8e:	b1 e0       	ldi	r27, 0x01	; 1
/home/jenkins-mingw32/workspace/avr-gcc-staging/label/Ubuntu14.04x64-mingw32/gcc-build/avr/avr5/libgcc/../../../../gcc/libgcc/config/avr/lib1funcs.S:2444
      90:	01 c0       	rjmp	.+2      	; 0x94 <.do_clear_bss_start>

00000092 <.do_clear_bss_loop>:
/home/jenkins-mingw32/workspace/avr-gcc-staging/label/Ubuntu14.04x64-mingw32/gcc-build/avr/avr5/libgcc/../../../../gcc/libgcc/config/avr/lib1funcs.S:2446
      92:	1d 92       	st	X+, r1

00000094 <.do_clear_bss_start>:
/home/jenkins-mingw32/workspace/avr-gcc-staging/label/Ubuntu14.04x64-mingw32/gcc-build/avr/avr5/libgcc/../../../../gcc/libgcc/config/avr/lib1funcs.S:2448
      94:	ad 39       	cpi	r26, 0x9D	; 157
/home/jenkins-mingw32/workspace/avr-gcc-staging/label/Ubuntu14.04x64-mingw32/gcc-build/avr/avr5/libgcc/../../../../gcc/libgcc/config/avr/lib1funcs.S:2449
      96:	b2 07       	cpc	r27, r18
/home/jenkins-mingw32/workspace/avr-gcc-staging/label/Ubuntu14.04x64-mingw32/gcc-build/avr/avr5/libgcc/../../../../gcc/libgcc/config/avr/lib1funcs.S:2450
      98:	e1 f7       	brne	.-8      	; 0x92 <.do_clear_bss_loop>
.do_clear_bss_start():
      9a:	0e 94 5b 02 	call	0x4b6	; 0x4b6 <main>
      9e:	0c 94 f0 09 	jmp	0x13e0	; 0x13e0 <_exit>

000000a2 <__bad_interrupt>:
__vector_22():
      a2:	0c 94 00 00 	jmp	0	; 0x0 <__vectors>

000000a6 <i2c_write(unsigned char)>:
_Z9i2c_writeh():
C:\Users\Utilizador\Desktop\RAFA\UNI\LABSI-LUMINOSIDADE\LABSI\PROG\PROGv1/PROGv1.ino:277
}
void i2c_stop(void) {
	TWCR = (1 << TWINT) | (1 << TWSTO) | (1 << TWEN);
}
void i2c_write(uint8_t data) {
	TWDR = data;
      a6:	80 93 bb 00 	sts	0x00BB, r24	; 0x8000bb <__DATA_REGION_ORIGIN__+0x5b>
C:\Users\Utilizador\Desktop\RAFA\UNI\LABSI-LUMINOSIDADE\LABSI\PROG\PROGv1/PROGv1.ino:278
	TWCR = (1 << TWINT) | (1 << TWEN);
      aa:	84 e8       	ldi	r24, 0x84	; 132
      ac:	80 93 bc 00 	sts	0x00BC, r24	; 0x8000bc <__DATA_REGION_ORIGIN__+0x5c>
      b0:	81 e2       	ldi	r24, 0x21	; 33
      b2:	9e e4       	ldi	r25, 0x4E	; 78
C:\Users\Utilizador\Desktop\RAFA\UNI\LABSI-LUMINOSIDADE\LABSI\PROG\PROGv1/PROGv1.ino:280
	uint16_t timeout = 0;
	while(!(TWCR & (1 << TWINT)) && timeout < I2C_TIMEOUT_CYCLES) {
      b4:	20 91 bc 00 	lds	r18, 0x00BC	; 0x8000bc <__DATA_REGION_ORIGIN__+0x5c>
      b8:	27 fd       	sbrc	r18, 7
      ba:	02 c0       	rjmp	.+4      	; 0xc0 <i2c_write(unsigned char)+0x1a>
      bc:	01 97       	sbiw	r24, 0x01	; 1
      be:	d1 f7       	brne	.-12     	; 0xb4 <i2c_write(unsigned char)+0xe>
C:\Users\Utilizador\Desktop\RAFA\UNI\LABSI-LUMINOSIDADE\LABSI\PROG\PROGv1/PROGv1.ino:283
		timeout++;
	}
}
      c0:	08 95       	ret

000000c2 <i2c_start()>:
_Z9i2c_startv():
C:\Users\Utilizador\Desktop\RAFA\UNI\LABSI-LUMINOSIDADE\LABSI\PROG\PROGv1/PROGv1.ino:267
	TWBR = 72;
	DDRC &= ~((1 << PC4) | (1 << PC5));
	PORTC |= (1 << PC4) | (1 << PC5);
}
void i2c_start(void) {
	TWCR = (1 << TWINT) | (1 << TWSTA) | (1 << TWEN);
      c2:	84 ea       	ldi	r24, 0xA4	; 164
      c4:	80 93 bc 00 	sts	0x00BC, r24	; 0x8000bc <__DATA_REGION_ORIGIN__+0x5c>
      c8:	81 e2       	ldi	r24, 0x21	; 33
      ca:	9e e4       	ldi	r25, 0x4E	; 78
C:\Users\Utilizador\Desktop\RAFA\UNI\LABSI-LUMINOSIDADE\LABSI\PROG\PROGv1/PROGv1.ino:269
	uint16_t timeout = 0;
	while(!(TWCR & (1 << TWINT)) && timeout < I2C_TIMEOUT_CYCLES) {
      cc:	20 91 bc 00 	lds	r18, 0x00BC	; 0x8000bc <__DATA_REGION_ORIGIN__+0x5c>
      d0:	27 fd       	sbrc	r18, 7
      d2:	02 c0       	rjmp	.+4      	; 0xd8 <i2c_start()+0x16>
      d4:	01 97       	sbiw	r24, 0x01	; 1
      d6:	d1 f7       	brne	.-12     	; 0xcc <i2c_start()+0xa>
C:\Users\Utilizador\Desktop\RAFA\UNI\LABSI-LUMINOSIDADE\LABSI\PROG\PROGv1/PROGv1.ino:272
		timeout++;
	}
}
      d8:	08 95       	ret

000000da <bh1750_read(unsigned char)>:
_Z11bh1750_readh():
C:\Users\Utilizador\Desktop\RAFA\UNI\LABSI-LUMINOSIDADE\LABSI\PROG\PROGv1/PROGv1.ino:367
		return 0;
	}
	i2c_stop();
	return 1;
}
uint16_t bh1750_read(uint8_t addr) {
      da:	cf 93       	push	r28
      dc:	c8 2f       	mov	r28, r24
C:\Users\Utilizador\Desktop\RAFA\UNI\LABSI-LUMINOSIDADE\LABSI\PROG\PROGv1/PROGv1.ino:369
	uint8_t high_byte, low_byte;
	i2c_start();
      de:	0e 94 61 00 	call	0xc2	; 0xc2 <i2c_start()>
i2c_get_status():
C:\Users\Utilizador\Desktop\RAFA\UNI\LABSI-LUMINOSIDADE\LABSI\PROG\PROGv1/PROGv1.ino:301
		timeout++;
	}
	return TWDR;
}
uint8_t i2c_get_status(void) {
	return TWSR & 0b11111000;
      e2:	80 91 b9 00 	lds	r24, 0x00B9	; 0x8000b9 <__DATA_REGION_ORIGIN__+0x59>
      e6:	88 7f       	andi	r24, 0xF8	; 248
_Z11bh1750_readh():
C:\Users\Utilizador\Desktop\RAFA\UNI\LABSI-LUMINOSIDADE\LABSI\PROG\PROGv1/PROGv1.ino:370
	return 1;
}
uint16_t bh1750_read(uint8_t addr) {
	uint8_t high_byte, low_byte;
	i2c_start();
	if(i2c_get_status() != 0x08) {
      e8:	88 30       	cpi	r24, 0x08	; 8
      ea:	39 f0       	breq	.+14     	; 0xfa <bh1750_read(unsigned char)+0x20>
i2c_stop():
C:\Users\Utilizador\Desktop\RAFA\UNI\LABSI-LUMINOSIDADE\LABSI\PROG\PROGv1/PROGv1.ino:274
	while(!(TWCR & (1 << TWINT)) && timeout < I2C_TIMEOUT_CYCLES) {
		timeout++;
	}
}
void i2c_stop(void) {
	TWCR = (1 << TWINT) | (1 << TWSTO) | (1 << TWEN);
      ec:	84 e9       	ldi	r24, 0x94	; 148
      ee:	80 93 bc 00 	sts	0x00BC, r24	; 0x8000bc <__DATA_REGION_ORIGIN__+0x5c>
_Z11bh1750_readh():
C:\Users\Utilizador\Desktop\RAFA\UNI\LABSI-LUMINOSIDADE\LABSI\PROG\PROGv1/PROGv1.ino:377
		return 0;
	}
	i2c_write((addr << 1) | 1);
	if(i2c_get_status() != 0x40) {
		i2c_stop();
		return 0;
      f2:	90 e0       	ldi	r25, 0x00	; 0
      f4:	80 e0       	ldi	r24, 0x00	; 0
C:\Users\Utilizador\Desktop\RAFA\UNI\LABSI-LUMINOSIDADE\LABSI\PROG\PROGv1/PROGv1.ino:384
	high_byte = i2c_read_ack();
	low_byte = i2c_read_nack();
	i2c_stop();
	uint16_t data = (high_byte << 8) | low_byte;
	return (uint16_t)((float) data / 1.2);
}
      f6:	cf 91       	pop	r28
      f8:	08 95       	ret
C:\Users\Utilizador\Desktop\RAFA\UNI\LABSI-LUMINOSIDADE\LABSI\PROG\PROGv1/PROGv1.ino:374
	i2c_start();
	if(i2c_get_status() != 0x08) {
		i2c_stop();
		return 0;
	}
	i2c_write((addr << 1) | 1);
      fa:	8c 2f       	mov	r24, r28
      fc:	88 0f       	add	r24, r24
      fe:	81 60       	ori	r24, 0x01	; 1
     100:	0e 94 53 00 	call	0xa6	; 0xa6 <i2c_write(unsigned char)>
i2c_get_status():
C:\Users\Utilizador\Desktop\RAFA\UNI\LABSI-LUMINOSIDADE\LABSI\PROG\PROGv1/PROGv1.ino:301
		timeout++;
	}
	return TWDR;
}
uint8_t i2c_get_status(void) {
	return TWSR & 0b11111000;
     104:	80 91 b9 00 	lds	r24, 0x00B9	; 0x8000b9 <__DATA_REGION_ORIGIN__+0x59>
     108:	88 7f       	andi	r24, 0xF8	; 248
_Z11bh1750_readh():
C:\Users\Utilizador\Desktop\RAFA\UNI\LABSI-LUMINOSIDADE\LABSI\PROG\PROGv1/PROGv1.ino:375
	if(i2c_get_status() != 0x08) {
		i2c_stop();
		return 0;
	}
	i2c_write((addr << 1) | 1);
	if(i2c_get_status() != 0x40) {
     10a:	80 34       	cpi	r24, 0x40	; 64
     10c:	79 f7       	brne	.-34     	; 0xec <bh1750_read(unsigned char)+0x12>
i2c_read_ack():
C:\Users\Utilizador\Desktop\RAFA\UNI\LABSI-LUMINOSIDADE\LABSI\PROG\PROGv1/PROGv1.ino:285
	while(!(TWCR & (1 << TWINT)) && timeout < I2C_TIMEOUT_CYCLES) {
		timeout++;
	}
}
uint8_t i2c_read_ack(void) {
	TWCR = (1 << TWINT) | (1 << TWEN) | (1 << TWEA);
     10e:	84 ec       	ldi	r24, 0xC4	; 196
     110:	80 93 bc 00 	sts	0x00BC, r24	; 0x8000bc <__DATA_REGION_ORIGIN__+0x5c>
     114:	81 e2       	ldi	r24, 0x21	; 33
     116:	9e e4       	ldi	r25, 0x4E	; 78
C:\Users\Utilizador\Desktop\RAFA\UNI\LABSI-LUMINOSIDADE\LABSI\PROG\PROGv1/PROGv1.ino:287
	uint16_t timeout = 0;
	while(!(TWCR & (1 << TWINT)) && timeout < I2C_TIMEOUT_CYCLES) {
     118:	20 91 bc 00 	lds	r18, 0x00BC	; 0x8000bc <__DATA_REGION_ORIGIN__+0x5c>
     11c:	27 fd       	sbrc	r18, 7
     11e:	02 c0       	rjmp	.+4      	; 0x124 <bh1750_read(unsigned char)+0x4a>
     120:	01 97       	sbiw	r24, 0x01	; 1
     122:	d1 f7       	brne	.-12     	; 0x118 <bh1750_read(unsigned char)+0x3e>
C:\Users\Utilizador\Desktop\RAFA\UNI\LABSI-LUMINOSIDADE\LABSI\PROG\PROGv1/PROGv1.ino:290
		timeout++;
	}
	return TWDR;
     124:	60 91 bb 00 	lds	r22, 0x00BB	; 0x8000bb <__DATA_REGION_ORIGIN__+0x5b>
i2c_read_nack():
C:\Users\Utilizador\Desktop\RAFA\UNI\LABSI-LUMINOSIDADE\LABSI\PROG\PROGv1/PROGv1.ino:293
}
uint8_t i2c_read_nack(void) {
	TWCR = (1 << TWINT) | (1 << TWEN);
     128:	84 e8       	ldi	r24, 0x84	; 132
     12a:	80 93 bc 00 	sts	0x00BC, r24	; 0x8000bc <__DATA_REGION_ORIGIN__+0x5c>
     12e:	81 e2       	ldi	r24, 0x21	; 33
     130:	9e e4       	ldi	r25, 0x4E	; 78
C:\Users\Utilizador\Desktop\RAFA\UNI\LABSI-LUMINOSIDADE\LABSI\PROG\PROGv1/PROGv1.ino:295
	uint16_t timeout = 0;
	while(!(TWCR & (1 << TWINT)) && timeout < I2C_TIMEOUT_CYCLES) {
     132:	20 91 bc 00 	lds	r18, 0x00BC	; 0x8000bc <__DATA_REGION_ORIGIN__+0x5c>
     136:	27 fd       	sbrc	r18, 7
     138:	02 c0       	rjmp	.+4      	; 0x13e <bh1750_read(unsigned char)+0x64>
     13a:	01 97       	sbiw	r24, 0x01	; 1
     13c:	d1 f7       	brne	.-12     	; 0x132 <bh1750_read(unsigned char)+0x58>
C:\Users\Utilizador\Desktop\RAFA\UNI\LABSI-LUMINOSIDADE\LABSI\PROG\PROGv1/PROGv1.ino:298
		timeout++;
	}
	return TWDR;
     13e:	80 91 bb 00 	lds	r24, 0x00BB	; 0x8000bb <__DATA_REGION_ORIGIN__+0x5b>
i2c_stop():
C:\Users\Utilizador\Desktop\RAFA\UNI\LABSI-LUMINOSIDADE\LABSI\PROG\PROGv1/PROGv1.ino:274
	while(!(TWCR & (1 << TWINT)) && timeout < I2C_TIMEOUT_CYCLES) {
		timeout++;
	}
}
void i2c_stop(void) {
	TWCR = (1 << TWINT) | (1 << TWSTO) | (1 << TWEN);
     142:	94 e9       	ldi	r25, 0x94	; 148
     144:	90 93 bc 00 	sts	0x00BC, r25	; 0x8000bc <__DATA_REGION_ORIGIN__+0x5c>
_Z11bh1750_readh():
C:\Users\Utilizador\Desktop\RAFA\UNI\LABSI-LUMINOSIDADE\LABSI\PROG\PROGv1/PROGv1.ino:382
		return 0;
	}
	high_byte = i2c_read_ack();
	low_byte = i2c_read_nack();
	i2c_stop();
	uint16_t data = (high_byte << 8) | low_byte;
     148:	76 2f       	mov	r23, r22
     14a:	68 2f       	mov	r22, r24
C:\Users\Utilizador\Desktop\RAFA\UNI\LABSI-LUMINOSIDADE\LABSI\PROG\PROGv1/PROGv1.ino:383
	return (uint16_t)((float) data / 1.2);
     14c:	90 e0       	ldi	r25, 0x00	; 0
     14e:	80 e0       	ldi	r24, 0x00	; 0
     150:	0e 94 2e 06 	call	0xc5c	; 0xc5c <__floatunsisf>
     154:	2a e9       	ldi	r18, 0x9A	; 154
     156:	39 e9       	ldi	r19, 0x99	; 153
     158:	49 e9       	ldi	r20, 0x99	; 153
     15a:	5f e3       	ldi	r21, 0x3F	; 63
     15c:	0e 94 8d 05 	call	0xb1a	; 0xb1a <__divsf3>
     160:	0e 94 ff 05 	call	0xbfe	; 0xbfe <__fixunssfsi>
     164:	cb 01       	movw	r24, r22
     166:	c7 cf       	rjmp	.-114    	; 0xf6 <bh1750_read(unsigned char)+0x1c>

00000168 <bh1750_send(unsigned char, unsigned char)>:
_Z11bh1750_sendhh():
C:\Users\Utilizador\Desktop\RAFA\UNI\LABSI-LUMINOSIDADE\LABSI\PROG\PROGv1/PROGv1.ino:352
	lcd_write_byte(0b00001100, 0); // Display on, cursor off, blink off
	lcd_write_byte(0b00000001, 0); // Clear Display
	lcd_write_byte(0b00000110, 0); // Entry mode: Increment cursor, no display shift
}
// --- BH1750 Functions ---
uint8_t bh1750_send(uint8_t addr, uint8_t data) {
     168:	cf 93       	push	r28
     16a:	df 93       	push	r29
     16c:	d8 2f       	mov	r29, r24
     16e:	c6 2f       	mov	r28, r22
C:\Users\Utilizador\Desktop\RAFA\UNI\LABSI-LUMINOSIDADE\LABSI\PROG\PROGv1/PROGv1.ino:353
	i2c_start();
     170:	0e 94 61 00 	call	0xc2	; 0xc2 <i2c_start()>
C:\Users\Utilizador\Desktop\RAFA\UNI\LABSI-LUMINOSIDADE\LABSI\PROG\PROGv1/PROGv1.ino:354
	i2c_write(addr << 1 | 0);
     174:	8d 2f       	mov	r24, r29
     176:	88 0f       	add	r24, r24
     178:	0e 94 53 00 	call	0xa6	; 0xa6 <i2c_write(unsigned char)>
i2c_get_status():
C:\Users\Utilizador\Desktop\RAFA\UNI\LABSI-LUMINOSIDADE\LABSI\PROG\PROGv1/PROGv1.ino:301
		timeout++;
	}
	return TWDR;
}
uint8_t i2c_get_status(void) {
	return TWSR & 0b11111000;
     17c:	80 91 b9 00 	lds	r24, 0x00B9	; 0x8000b9 <__DATA_REGION_ORIGIN__+0x59>
     180:	88 7f       	andi	r24, 0xF8	; 248
_Z11bh1750_sendhh():
C:\Users\Utilizador\Desktop\RAFA\UNI\LABSI-LUMINOSIDADE\LABSI\PROG\PROGv1/PROGv1.ino:355
}
// --- BH1750 Functions ---
uint8_t bh1750_send(uint8_t addr, uint8_t data) {
	i2c_start();
	i2c_write(addr << 1 | 0);
	if(i2c_get_status() != 0x18) { //SLA+W
     182:	88 31       	cpi	r24, 0x18	; 24
     184:	39 f0       	breq	.+14     	; 0x194 <bh1750_send(unsigned char, unsigned char)+0x2c>
i2c_stop():
C:\Users\Utilizador\Desktop\RAFA\UNI\LABSI-LUMINOSIDADE\LABSI\PROG\PROGv1/PROGv1.ino:274
	while(!(TWCR & (1 << TWINT)) && timeout < I2C_TIMEOUT_CYCLES) {
		timeout++;
	}
}
void i2c_stop(void) {
	TWCR = (1 << TWINT) | (1 << TWSTO) | (1 << TWEN);
     186:	84 e9       	ldi	r24, 0x94	; 148
     188:	80 93 bc 00 	sts	0x00BC, r24	; 0x8000bc <__DATA_REGION_ORIGIN__+0x5c>
_Z11bh1750_sendhh():
C:\Users\Utilizador\Desktop\RAFA\UNI\LABSI-LUMINOSIDADE\LABSI\PROG\PROGv1/PROGv1.ino:362
		return 0;
	}
	i2c_write(data);
	if(i2c_get_status() != 0x28) { //DATA+ACK
		i2c_stop();
		return 0;
     18c:	80 e0       	ldi	r24, 0x00	; 0
C:\Users\Utilizador\Desktop\RAFA\UNI\LABSI-LUMINOSIDADE\LABSI\PROG\PROGv1/PROGv1.ino:366
	}
	i2c_stop();
	return 1;
}
     18e:	df 91       	pop	r29
     190:	cf 91       	pop	r28
     192:	08 95       	ret
C:\Users\Utilizador\Desktop\RAFA\UNI\LABSI-LUMINOSIDADE\LABSI\PROG\PROGv1/PROGv1.ino:359
	i2c_write(addr << 1 | 0);
	if(i2c_get_status() != 0x18) { //SLA+W
		i2c_stop();
		return 0;
	}
	i2c_write(data);
     194:	8c 2f       	mov	r24, r28
     196:	0e 94 53 00 	call	0xa6	; 0xa6 <i2c_write(unsigned char)>
i2c_get_status():
C:\Users\Utilizador\Desktop\RAFA\UNI\LABSI-LUMINOSIDADE\LABSI\PROG\PROGv1/PROGv1.ino:301
		timeout++;
	}
	return TWDR;
}
uint8_t i2c_get_status(void) {
	return TWSR & 0b11111000;
     19a:	80 91 b9 00 	lds	r24, 0x00B9	; 0x8000b9 <__DATA_REGION_ORIGIN__+0x59>
     19e:	88 7f       	andi	r24, 0xF8	; 248
_Z11bh1750_sendhh():
C:\Users\Utilizador\Desktop\RAFA\UNI\LABSI-LUMINOSIDADE\LABSI\PROG\PROGv1/PROGv1.ino:360
	if(i2c_get_status() != 0x18) { //SLA+W
		i2c_stop();
		return 0;
	}
	i2c_write(data);
	if(i2c_get_status() != 0x28) { //DATA+ACK
     1a0:	88 32       	cpi	r24, 0x28	; 40
     1a2:	89 f7       	brne	.-30     	; 0x186 <bh1750_send(unsigned char, unsigned char)+0x1e>
i2c_stop():
C:\Users\Utilizador\Desktop\RAFA\UNI\LABSI-LUMINOSIDADE\LABSI\PROG\PROGv1/PROGv1.ino:274
	while(!(TWCR & (1 << TWINT)) && timeout < I2C_TIMEOUT_CYCLES) {
		timeout++;
	}
}
void i2c_stop(void) {
	TWCR = (1 << TWINT) | (1 << TWSTO) | (1 << TWEN);
     1a4:	84 e9       	ldi	r24, 0x94	; 148
     1a6:	80 93 bc 00 	sts	0x00BC, r24	; 0x8000bc <__DATA_REGION_ORIGIN__+0x5c>
_Z11bh1750_sendhh():
C:\Users\Utilizador\Desktop\RAFA\UNI\LABSI-LUMINOSIDADE\LABSI\PROG\PROGv1/PROGv1.ino:365
	if(i2c_get_status() != 0x28) { //DATA+ACK
		i2c_stop();
		return 0;
	}
	i2c_stop();
	return 1;
     1aa:	81 e0       	ldi	r24, 0x01	; 1
     1ac:	f0 cf       	rjmp	.-32     	; 0x18e <bh1750_send(unsigned char, unsigned char)+0x26>

000001ae <IS_DELAY_FINISHED()>:
_Z17IS_DELAY_FINISHEDv():
C:\Users\Utilizador\Desktop\RAFA\UNI\LABSI-LUMINOSIDADE\LABSI\PROG\PROGv1/PROGv1.ino:117
// --- ATRASO NON-BLOCKING (BASEADO EM 2MS) ---
void START_NB_DELAY_MS(uint16_t ms) {
	g_delay_counter_2ms = (ms / 2) + 1;
}
uint8_t IS_DELAY_FINISHED() {
	if(g_delay_counter_2ms == 0) return 1;
     1ae:	20 91 70 01 	lds	r18, 0x0170	; 0x800170 <g_delay_counter_2ms>
     1b2:	30 91 71 01 	lds	r19, 0x0171	; 0x800171 <g_delay_counter_2ms+0x1>
     1b6:	81 e0       	ldi	r24, 0x01	; 1
     1b8:	23 2b       	or	r18, r19
     1ba:	09 f0       	breq	.+2      	; 0x1be <IS_DELAY_FINISHED()+0x10>
     1bc:	80 e0       	ldi	r24, 0x00	; 0
C:\Users\Utilizador\Desktop\RAFA\UNI\LABSI-LUMINOSIDADE\LABSI\PROG\PROGv1/PROGv1.ino:119
	else return 0;
}
     1be:	08 95       	ret

000001c0 <delay_us(unsigned int)>:
_Z8delay_usj():
C:\Users\Utilizador\Desktop\RAFA\UNI\LABSI-LUMINOSIDADE\LABSI\PROG\PROGv1/PROGv1.ino:105
		"nop\n\t"
		"nop\n\t"
		"nop\n\t"
		"nop\n\t"::: "memory");
}
void delay_us(uint16_t us) {
     1c0:	ac 01       	movw	r20, r24
C:\Users\Utilizador\Desktop\RAFA\UNI\LABSI-LUMINOSIDADE\LABSI\PROG\PROGv1/PROGv1.ino:106
	for(uint16_t i = 0; i < us; i++) {
     1c2:	30 e0       	ldi	r19, 0x00	; 0
     1c4:	20 e0       	ldi	r18, 0x00	; 0
     1c6:	94 e0       	ldi	r25, 0x04	; 4
	...
short_delay():
C:\Users\Utilizador\Desktop\RAFA\UNI\LABSI-LUMINOSIDADE\LABSI\PROG\PROGv1/PROGv1.ino:103
		"nop\n\t"
		"nop\n\t"
		"nop\n\t"
		"nop\n\t"
		"nop\n\t"
		"nop\n\t"::: "memory");
     1e8:	91 50       	subi	r25, 0x01	; 1
_Z8delay_usj():
C:\Users\Utilizador\Desktop\RAFA\UNI\LABSI-LUMINOSIDADE\LABSI\PROG\PROGv1/PROGv1.ino:107
}
void delay_us(uint16_t us) {
	for(uint16_t i = 0; i < us; i++) {
		for(uint8_t j = 0; j < 4; j++) {
     1ea:	71 f7       	brne	.-36     	; 0x1c8 <delay_us(unsigned int)+0x8>
C:\Users\Utilizador\Desktop\RAFA\UNI\LABSI-LUMINOSIDADE\LABSI\PROG\PROGv1/PROGv1.ino:106
		"nop\n\t"
		"nop\n\t"
		"nop\n\t"::: "memory");
}
void delay_us(uint16_t us) {
	for(uint16_t i = 0; i < us; i++) {
     1ec:	2f 5f       	subi	r18, 0xFF	; 255
     1ee:	3f 4f       	sbci	r19, 0xFF	; 255
     1f0:	42 17       	cp	r20, r18
     1f2:	53 07       	cpc	r21, r19
     1f4:	41 f7       	brne	.-48     	; 0x1c6 <delay_us(unsigned int)+0x6>
C:\Users\Utilizador\Desktop\RAFA\UNI\LABSI-LUMINOSIDADE\LABSI\PROG\PROGv1/PROGv1.ino:111
		for(uint8_t j = 0; j < 4; j++) {
			short_delay();
		}
	}
}
     1f6:	08 95       	ret

000001f8 <sonar_is_close(unsigned char)>:
_Z14sonar_is_closeh():
C:\Users\Utilizador\Desktop\RAFA\UNI\LABSI-LUMINOSIDADE\LABSI\PROG\PROGv1/PROGv1.ino:464
			break;
	}
	OCR1A = valor_pwm;
}
// verifica se há objeto < ~20 cm ---
uint8_t sonar_is_close(uint8_t sonar_id) {
     1f8:	ef 92       	push	r14
     1fa:	ff 92       	push	r15
     1fc:	0f 93       	push	r16
     1fe:	1f 93       	push	r17
     200:	cf 93       	push	r28
     202:	df 93       	push	r29
C:\Users\Utilizador\Desktop\RAFA\UNI\LABSI-LUMINOSIDADE\LABSI\PROG\PROGv1/PROGv1.ino:467
	uint8_t trig_pin;
	uint8_t echo_pin;
	DDRD |= (1 << trig_pin);
     204:	50 9a       	sbi	0x0a, 0	; 10
C:\Users\Utilizador\Desktop\RAFA\UNI\LABSI-LUMINOSIDADE\LABSI\PROG\PROGv1/PROGv1.ino:468
  DDRD &= ~(1 << echo_pin);
     206:	50 98       	cbi	0x0a, 0	; 10
C:\Users\Utilizador\Desktop\RAFA\UNI\LABSI-LUMINOSIDADE\LABSI\PROG\PROGv1/PROGv1.ino:472

	if(sonar_id == 1) {
		trig_pin = SONAR1_TRIG;
		echo_pin = SONAR1_ECHO;
     208:	12 e0       	ldi	r17, 0x02	; 2
C:\Users\Utilizador\Desktop\RAFA\UNI\LABSI-LUMINOSIDADE\LABSI\PROG\PROGv1/PROGv1.ino:471
	uint8_t echo_pin;
	DDRD |= (1 << trig_pin);
  DDRD &= ~(1 << echo_pin);

	if(sonar_id == 1) {
		trig_pin = SONAR1_TRIG;
     20a:	90 e0       	ldi	r25, 0x00	; 0
C:\Users\Utilizador\Desktop\RAFA\UNI\LABSI-LUMINOSIDADE\LABSI\PROG\PROGv1/PROGv1.ino:470
	uint8_t trig_pin;
	uint8_t echo_pin;
	DDRD |= (1 << trig_pin);
  DDRD &= ~(1 << echo_pin);

	if(sonar_id == 1) {
     20c:	81 30       	cpi	r24, 0x01	; 1
     20e:	11 f0       	breq	.+4      	; 0x214 <sonar_is_close(unsigned char)+0x1c>
C:\Users\Utilizador\Desktop\RAFA\UNI\LABSI-LUMINOSIDADE\LABSI\PROG\PROGv1/PROGv1.ino:475
		trig_pin = SONAR1_TRIG;
		echo_pin = SONAR1_ECHO;
	} else {
		trig_pin = SONAR2_TRIG;
		echo_pin = SONAR2_ECHO;
     210:	13 e0       	ldi	r17, 0x03	; 3
C:\Users\Utilizador\Desktop\RAFA\UNI\LABSI-LUMINOSIDADE\LABSI\PROG\PROGv1/PROGv1.ino:474

	if(sonar_id == 1) {
		trig_pin = SONAR1_TRIG;
		echo_pin = SONAR1_ECHO;
	} else {
		trig_pin = SONAR2_TRIG;
     212:	91 e0       	ldi	r25, 0x01	; 1
C:\Users\Utilizador\Desktop\RAFA\UNI\LABSI-LUMINOSIDADE\LABSI\PROG\PROGv1/PROGv1.ino:478
		echo_pin = SONAR2_ECHO;
	}
	// Trigger: pulso de 10 us
	PORTD &= ~(1 << trig_pin);
     214:	8b b1       	in	r24, 0x0b	; 11
     216:	c1 e0       	ldi	r28, 0x01	; 1
     218:	d0 e0       	ldi	r29, 0x00	; 0
     21a:	7e 01       	movw	r14, r28
     21c:	01 c0       	rjmp	.+2      	; 0x220 <sonar_is_close(unsigned char)+0x28>
     21e:	ee 0c       	add	r14, r14
     220:	9a 95       	dec	r25
     222:	ea f7       	brpl	.-6      	; 0x21e <sonar_is_close(unsigned char)+0x26>
     224:	0e 2d       	mov	r16, r14
     226:	00 95       	com	r16
     228:	80 23       	and	r24, r16
     22a:	8b b9       	out	0x0b, r24	; 11
C:\Users\Utilizador\Desktop\RAFA\UNI\LABSI-LUMINOSIDADE\LABSI\PROG\PROGv1/PROGv1.ino:479
	delay_us(2);
     22c:	82 e0       	ldi	r24, 0x02	; 2
     22e:	90 e0       	ldi	r25, 0x00	; 0
     230:	0e 94 e0 00 	call	0x1c0	; 0x1c0 <delay_us(unsigned int)>
C:\Users\Utilizador\Desktop\RAFA\UNI\LABSI-LUMINOSIDADE\LABSI\PROG\PROGv1/PROGv1.ino:480
	PORTD |= (1 << trig_pin);
     234:	8b b1       	in	r24, 0x0b	; 11
     236:	8e 29       	or	r24, r14
     238:	8b b9       	out	0x0b, r24	; 11
C:\Users\Utilizador\Desktop\RAFA\UNI\LABSI-LUMINOSIDADE\LABSI\PROG\PROGv1/PROGv1.ino:481
	delay_us(10);
     23a:	8a e0       	ldi	r24, 0x0A	; 10
     23c:	90 e0       	ldi	r25, 0x00	; 0
     23e:	0e 94 e0 00 	call	0x1c0	; 0x1c0 <delay_us(unsigned int)>
C:\Users\Utilizador\Desktop\RAFA\UNI\LABSI-LUMINOSIDADE\LABSI\PROG\PROGv1/PROGv1.ino:482
	PORTD &= ~(1 << trig_pin);
     242:	8b b1       	in	r24, 0x0b	; 11
     244:	80 23       	and	r24, r16
     246:	8b b9       	out	0x0b, r24	; 11
     248:	02 c0       	rjmp	.+4      	; 0x24e <sonar_is_close(unsigned char)+0x56>
     24a:	cc 0f       	add	r28, r28
     24c:	dd 1f       	adc	r29, r29
     24e:	1a 95       	dec	r17
     250:	e2 f7       	brpl	.-8      	; 0x24a <sonar_is_close(unsigned char)+0x52>
C:\Users\Utilizador\Desktop\RAFA\UNI\LABSI-LUMINOSIDADE\LABSI\PROG\PROGv1/PROGv1.ino:484
	// Espera echo subir (com timeout simples)
	uint16_t timeout = 0;
     252:	30 e0       	ldi	r19, 0x00	; 0
     254:	20 e0       	ldi	r18, 0x00	; 0
C:\Users\Utilizador\Desktop\RAFA\UNI\LABSI-LUMINOSIDADE\LABSI\PROG\PROGv1/PROGv1.ino:485
	while(!(PIND & (1 << echo_pin)) && timeout < 5000) {
     256:	89 b1       	in	r24, 0x09	; 9
     258:	90 e0       	ldi	r25, 0x00	; 0
     25a:	8c 23       	and	r24, r28
     25c:	9d 23       	and	r25, r29
     25e:	89 2b       	or	r24, r25
     260:	39 f4       	brne	.+14     	; 0x270 <sonar_is_close(unsigned char)+0x78>
     262:	28 38       	cpi	r18, 0x88	; 136
     264:	83 e1       	ldi	r24, 0x13	; 19
     266:	38 07       	cpc	r19, r24
     268:	49 f1       	breq	.+82     	; 0x2bc <sonar_is_close(unsigned char)+0xc4>
C:\Users\Utilizador\Desktop\RAFA\UNI\LABSI-LUMINOSIDADE\LABSI\PROG\PROGv1/PROGv1.ino:486
		timeout++;
     26a:	2f 5f       	subi	r18, 0xFF	; 255
     26c:	3f 4f       	sbci	r19, 0xFF	; 255
     26e:	f3 cf       	rjmp	.-26     	; 0x256 <sonar_is_close(unsigned char)+0x5e>
C:\Users\Utilizador\Desktop\RAFA\UNI\LABSI-LUMINOSIDADE\LABSI\PROG\PROGv1/PROGv1.ino:488
	}
	if(timeout >= 5000) {
     270:	28 38       	cpi	r18, 0x88	; 136
     272:	33 41       	sbci	r19, 0x13	; 19
     274:	19 f1       	breq	.+70     	; 0x2bc <sonar_is_close(unsigned char)+0xc4>
C:\Users\Utilizador\Desktop\RAFA\UNI\LABSI-LUMINOSIDADE\LABSI\PROG\PROGv1/PROGv1.ino:492
		return 0; // sem resposta
	}
	// Mede largura do pulso de echo usando TCNT1 (4 us por tick)
	uint16_t start = TCNT1;
     276:	40 91 84 00 	lds	r20, 0x0084	; 0x800084 <__DATA_REGION_ORIGIN__+0x24>
     27a:	50 91 85 00 	lds	r21, 0x0085	; 0x800085 <__DATA_REGION_ORIGIN__+0x25>
     27e:	29 e8       	ldi	r18, 0x89	; 137
     280:	33 e1       	ldi	r19, 0x13	; 19
C:\Users\Utilizador\Desktop\RAFA\UNI\LABSI-LUMINOSIDADE\LABSI\PROG\PROGv1/PROGv1.ino:494
	timeout = 0;
	while((PIND & (1 << echo_pin)) && timeout < 5000) {
     282:	89 b1       	in	r24, 0x09	; 9
     284:	90 e0       	ldi	r25, 0x00	; 0
     286:	8c 23       	and	r24, r28
     288:	9d 23       	and	r25, r29
     28a:	89 2b       	or	r24, r25
     28c:	19 f0       	breq	.+6      	; 0x294 <sonar_is_close(unsigned char)+0x9c>
     28e:	21 50       	subi	r18, 0x01	; 1
     290:	31 09       	sbc	r19, r1
     292:	b9 f7       	brne	.-18     	; 0x282 <sonar_is_close(unsigned char)+0x8a>
C:\Users\Utilizador\Desktop\RAFA\UNI\LABSI-LUMINOSIDADE\LABSI\PROG\PROGv1/PROGv1.ino:497
		timeout++;
	}
	uint16_t end = TCNT1;
     294:	80 91 84 00 	lds	r24, 0x0084	; 0x800084 <__DATA_REGION_ORIGIN__+0x24>
     298:	90 91 85 00 	lds	r25, 0x0085	; 0x800085 <__DATA_REGION_ORIGIN__+0x25>
C:\Users\Utilizador\Desktop\RAFA\UNI\LABSI-LUMINOSIDADE\LABSI\PROG\PROGv1/PROGv1.ino:501
	// Calcula diferença de ticks considerando wrap em ICR1 (5000)
	uint16_t ticks;
	if(end >= start) {
		ticks = end - start;
     29c:	9c 01       	movw	r18, r24
C:\Users\Utilizador\Desktop\RAFA\UNI\LABSI-LUMINOSIDADE\LABSI\PROG\PROGv1/PROGv1.ino:500
		timeout++;
	}
	uint16_t end = TCNT1;
	// Calcula diferença de ticks considerando wrap em ICR1 (5000)
	uint16_t ticks;
	if(end >= start) {
     29e:	84 17       	cp	r24, r20
     2a0:	95 07       	cpc	r25, r21
     2a2:	30 f4       	brcc	.+12     	; 0x2b0 <sonar_is_close(unsigned char)+0xb8>
C:\Users\Utilizador\Desktop\RAFA\UNI\LABSI-LUMINOSIDADE\LABSI\PROG\PROGv1/PROGv1.ino:503
		ticks = end - start;
	} else {
		ticks = (ICR1 - start) + end;
     2a4:	20 91 86 00 	lds	r18, 0x0086	; 0x800086 <__DATA_REGION_ORIGIN__+0x26>
     2a8:	30 91 87 00 	lds	r19, 0x0087	; 0x800087 <__DATA_REGION_ORIGIN__+0x27>
     2ac:	28 0f       	add	r18, r24
     2ae:	39 1f       	adc	r19, r25
     2b0:	24 1b       	sub	r18, r20
     2b2:	35 0b       	sbc	r19, r21
C:\Users\Utilizador\Desktop\RAFA\UNI\LABSI-LUMINOSIDADE\LABSI\PROG\PROGv1/PROGv1.ino:506
	}
	// Se ticks < limite -> menos de ~20 cm
	if(ticks < SONAR_THRESHOLD_TICKS_20CM) {
     2b4:	81 e0       	ldi	r24, 0x01	; 1
     2b6:	2c 32       	cpi	r18, 0x2C	; 44
     2b8:	31 40       	sbci	r19, 0x01	; 1
     2ba:	08 f0       	brcs	.+2      	; 0x2be <sonar_is_close(unsigned char)+0xc6>
C:\Users\Utilizador\Desktop\RAFA\UNI\LABSI-LUMINOSIDADE\LABSI\PROG\PROGv1/PROGv1.ino:489
	uint16_t timeout = 0;
	while(!(PIND & (1 << echo_pin)) && timeout < 5000) {
		timeout++;
	}
	if(timeout >= 5000) {
		return 0; // sem resposta
     2bc:	80 e0       	ldi	r24, 0x00	; 0
C:\Users\Utilizador\Desktop\RAFA\UNI\LABSI-LUMINOSIDADE\LABSI\PROG\PROGv1/PROGv1.ino:511
	if(ticks < SONAR_THRESHOLD_TICKS_20CM) {
		return 1;
	} else {
		return 0;
	}
}
     2be:	df 91       	pop	r29
     2c0:	cf 91       	pop	r28
     2c2:	1f 91       	pop	r17
     2c4:	0f 91       	pop	r16
     2c6:	ff 90       	pop	r15
     2c8:	ef 90       	pop	r14
     2ca:	08 95       	ret

000002cc <lcd_write_nibble(unsigned char, unsigned char)>:
_Z16lcd_write_nibblehh():
C:\Users\Utilizador\Desktop\RAFA\UNI\LABSI-LUMINOSIDADE\LABSI\PROG\PROGv1/PROGv1.ino:310
	i2c_start();
	i2c_write(LCD_I2C_ADDR << 1);
	i2c_write(data);
	i2c_stop();
}
void lcd_write_nibble(uint8_t nibble, uint8_t rs) {
     2cc:	cf 93       	push	r28
     2ce:	df 93       	push	r29
C:\Users\Utilizador\Desktop\RAFA\UNI\LABSI-LUMINOSIDADE\LABSI\PROG\PROGv1/PROGv1.ino:312
	uint8_t data = 0;
	if(nibble & 0b1000) data |= (1 << 0); // D7 -> P0
     2d0:	83 fb       	bst	r24, 3
     2d2:	cc 27       	eor	r28, r28
     2d4:	c0 f9       	bld	r28, 0
C:\Users\Utilizador\Desktop\RAFA\UNI\LABSI-LUMINOSIDADE\LABSI\PROG\PROGv1/PROGv1.ino:313
	if(nibble & 0b0100) data |= (1 << 1); // D6 -> P1
     2d6:	82 fd       	sbrc	r24, 2
     2d8:	c2 60       	ori	r28, 0x02	; 2
C:\Users\Utilizador\Desktop\RAFA\UNI\LABSI-LUMINOSIDADE\LABSI\PROG\PROGv1/PROGv1.ino:314
	if(nibble & 0b0010) data |= (1 << 2); // D5 -> P2
     2da:	81 fd       	sbrc	r24, 1
     2dc:	c4 60       	ori	r28, 0x04	; 4
C:\Users\Utilizador\Desktop\RAFA\UNI\LABSI-LUMINOSIDADE\LABSI\PROG\PROGv1/PROGv1.ino:315
	if(nibble & 0b0001) data |= (1 << 3); // D4 -> P3
     2de:	80 fd       	sbrc	r24, 0
     2e0:	c8 60       	ori	r28, 0x08	; 8
C:\Users\Utilizador\Desktop\RAFA\UNI\LABSI-LUMINOSIDADE\LABSI\PROG\PROGv1/PROGv1.ino:316
	if(rs) data |= PCF_RS;
     2e2:	61 11       	cpse	r22, r1
     2e4:	c0 68       	ori	r28, 0x80	; 128
i2c_lcd_send():
C:\Users\Utilizador\Desktop\RAFA\UNI\LABSI-LUMINOSIDADE\LABSI\PROG\PROGv1/PROGv1.ino:305
uint8_t i2c_get_status(void) {
	return TWSR & 0b11111000;
}
// --- LCD Functions ---
void i2c_lcd_send(uint8_t data) {
	i2c_start();
     2e6:	0e 94 61 00 	call	0xc2	; 0xc2 <i2c_start()>
C:\Users\Utilizador\Desktop\RAFA\UNI\LABSI-LUMINOSIDADE\LABSI\PROG\PROGv1/PROGv1.ino:306
	i2c_write(LCD_I2C_ADDR << 1);
     2ea:	80 e4       	ldi	r24, 0x40	; 64
     2ec:	0e 94 53 00 	call	0xa6	; 0xa6 <i2c_write(unsigned char)>
C:\Users\Utilizador\Desktop\RAFA\UNI\LABSI-LUMINOSIDADE\LABSI\PROG\PROGv1/PROGv1.ino:307
	i2c_write(data);
     2f0:	8c 2f       	mov	r24, r28
     2f2:	80 64       	ori	r24, 0x40	; 64
     2f4:	0e 94 53 00 	call	0xa6	; 0xa6 <i2c_write(unsigned char)>
i2c_stop():
C:\Users\Utilizador\Desktop\RAFA\UNI\LABSI-LUMINOSIDADE\LABSI\PROG\PROGv1/PROGv1.ino:274
	while(!(TWCR & (1 << TWINT)) && timeout < I2C_TIMEOUT_CYCLES) {
		timeout++;
	}
}
void i2c_stop(void) {
	TWCR = (1 << TWINT) | (1 << TWSTO) | (1 << TWEN);
     2f8:	d4 e9       	ldi	r29, 0x94	; 148
     2fa:	d0 93 bc 00 	sts	0x00BC, r29	; 0x8000bc <__DATA_REGION_ORIGIN__+0x5c>
_Z16lcd_write_nibblehh():
C:\Users\Utilizador\Desktop\RAFA\UNI\LABSI-LUMINOSIDADE\LABSI\PROG\PROGv1/PROGv1.ino:319
	if(nibble & 0b0010) data |= (1 << 2); // D5 -> P2
	if(nibble & 0b0001) data |= (1 << 3); // D4 -> P3
	if(rs) data |= PCF_RS;
	// EN high
	i2c_lcd_send(data | PCF_EN);
	delay_us(200);
     2fe:	88 ec       	ldi	r24, 0xC8	; 200
     300:	90 e0       	ldi	r25, 0x00	; 0
     302:	0e 94 e0 00 	call	0x1c0	; 0x1c0 <delay_us(unsigned int)>
i2c_lcd_send():
C:\Users\Utilizador\Desktop\RAFA\UNI\LABSI-LUMINOSIDADE\LABSI\PROG\PROGv1/PROGv1.ino:305
uint8_t i2c_get_status(void) {
	return TWSR & 0b11111000;
}
// --- LCD Functions ---
void i2c_lcd_send(uint8_t data) {
	i2c_start();
     306:	0e 94 61 00 	call	0xc2	; 0xc2 <i2c_start()>
C:\Users\Utilizador\Desktop\RAFA\UNI\LABSI-LUMINOSIDADE\LABSI\PROG\PROGv1/PROGv1.ino:306
	i2c_write(LCD_I2C_ADDR << 1);
     30a:	80 e4       	ldi	r24, 0x40	; 64
     30c:	0e 94 53 00 	call	0xa6	; 0xa6 <i2c_write(unsigned char)>
C:\Users\Utilizador\Desktop\RAFA\UNI\LABSI-LUMINOSIDADE\LABSI\PROG\PROGv1/PROGv1.ino:307
	i2c_write(data);
     310:	8c 2f       	mov	r24, r28
     312:	0e 94 53 00 	call	0xa6	; 0xa6 <i2c_write(unsigned char)>
i2c_stop():
C:\Users\Utilizador\Desktop\RAFA\UNI\LABSI-LUMINOSIDADE\LABSI\PROG\PROGv1/PROGv1.ino:274
	while(!(TWCR & (1 << TWINT)) && timeout < I2C_TIMEOUT_CYCLES) {
		timeout++;
	}
}
void i2c_stop(void) {
	TWCR = (1 << TWINT) | (1 << TWSTO) | (1 << TWEN);
     316:	d0 93 bc 00 	sts	0x00BC, r29	; 0x8000bc <__DATA_REGION_ORIGIN__+0x5c>
_Z16lcd_write_nibblehh():
C:\Users\Utilizador\Desktop\RAFA\UNI\LABSI-LUMINOSIDADE\LABSI\PROG\PROGv1/PROGv1.ino:322
	// EN high
	i2c_lcd_send(data | PCF_EN);
	delay_us(200);
	// EN low
	i2c_lcd_send(data & ~PCF_EN);
	delay_us(200);
     31a:	88 ec       	ldi	r24, 0xC8	; 200
     31c:	90 e0       	ldi	r25, 0x00	; 0
C:\Users\Utilizador\Desktop\RAFA\UNI\LABSI-LUMINOSIDADE\LABSI\PROG\PROGv1/PROGv1.ino:323
}
     31e:	df 91       	pop	r29
     320:	cf 91       	pop	r28
C:\Users\Utilizador\Desktop\RAFA\UNI\LABSI-LUMINOSIDADE\LABSI\PROG\PROGv1/PROGv1.ino:322
	// EN high
	i2c_lcd_send(data | PCF_EN);
	delay_us(200);
	// EN low
	i2c_lcd_send(data & ~PCF_EN);
	delay_us(200);
     322:	0c 94 e0 00 	jmp	0x1c0	; 0x1c0 <delay_us(unsigned int)>

00000326 <lcd_write_byte(unsigned char, unsigned char)>:
_Z14lcd_write_bytehh():
C:\Users\Utilizador\Desktop\RAFA\UNI\LABSI-LUMINOSIDADE\LABSI\PROG\PROGv1/PROGv1.ino:324
}
void lcd_write_byte(uint8_t data, uint8_t rs) {
     326:	cf 93       	push	r28
     328:	df 93       	push	r29
     32a:	c8 2f       	mov	r28, r24
     32c:	d6 2f       	mov	r29, r22
C:\Users\Utilizador\Desktop\RAFA\UNI\LABSI-LUMINOSIDADE\LABSI\PROG\PROGv1/PROGv1.ino:325
	lcd_write_nibble(data >> 4, rs); // High bits
     32e:	82 95       	swap	r24
     330:	8f 70       	andi	r24, 0x0F	; 15
     332:	0e 94 66 01 	call	0x2cc	; 0x2cc <lcd_write_nibble(unsigned char, unsigned char)>
C:\Users\Utilizador\Desktop\RAFA\UNI\LABSI-LUMINOSIDADE\LABSI\PROG\PROGv1/PROGv1.ino:326
	lcd_write_nibble(data & 0b00001111, rs); // Low bits
     336:	6d 2f       	mov	r22, r29
     338:	8c 2f       	mov	r24, r28
     33a:	8f 70       	andi	r24, 0x0F	; 15
C:\Users\Utilizador\Desktop\RAFA\UNI\LABSI-LUMINOSIDADE\LABSI\PROG\PROGv1/PROGv1.ino:327
}
     33c:	df 91       	pop	r29
     33e:	cf 91       	pop	r28
C:\Users\Utilizador\Desktop\RAFA\UNI\LABSI-LUMINOSIDADE\LABSI\PROG\PROGv1/PROGv1.ino:326
	i2c_lcd_send(data & ~PCF_EN);
	delay_us(200);
}
void lcd_write_byte(uint8_t data, uint8_t rs) {
	lcd_write_nibble(data >> 4, rs); // High bits
	lcd_write_nibble(data & 0b00001111, rs); // Low bits
     340:	0c 94 66 01 	jmp	0x2cc	; 0x2cc <lcd_write_nibble(unsigned char, unsigned char)>

00000344 <lcd_write_string(char const*)>:
_Z16lcd_write_stringPKc():
C:\Users\Utilizador\Desktop\RAFA\UNI\LABSI-LUMINOSIDADE\LABSI\PROG\PROGv1/PROGv1.ino:340
	} else {
		addr = 0b11000000 + col;
	}
	lcd_write_byte(addr, 0);
}
void lcd_write_string(const char * str) {
     344:	cf 93       	push	r28
     346:	df 93       	push	r29
     348:	ec 01       	movw	r28, r24
C:\Users\Utilizador\Desktop\RAFA\UNI\LABSI-LUMINOSIDADE\LABSI\PROG\PROGv1/PROGv1.ino:341
	while( * str) {
     34a:	89 91       	ld	r24, Y+
     34c:	88 23       	and	r24, r24
     34e:	21 f0       	breq	.+8      	; 0x358 <lcd_write_string(char const*)+0x14>
C:\Users\Utilizador\Desktop\RAFA\UNI\LABSI-LUMINOSIDADE\LABSI\PROG\PROGv1/PROGv1.ino:342
		lcd_write_byte( * str++, 1);
     350:	61 e0       	ldi	r22, 0x01	; 1
     352:	0e 94 93 01 	call	0x326	; 0x326 <lcd_write_byte(unsigned char, unsigned char)>
     356:	f9 cf       	rjmp	.-14     	; 0x34a <lcd_write_string(char const*)+0x6>
C:\Users\Utilizador\Desktop\RAFA\UNI\LABSI-LUMINOSIDADE\LABSI\PROG\PROGv1/PROGv1.ino:344
	}
}
     358:	df 91       	pop	r29
     35a:	cf 91       	pop	r28
     35c:	08 95       	ret

0000035e <__vector_4>:
__vector_4():
C:\Users\Utilizador\Desktop\RAFA\UNI\LABSI-LUMINOSIDADE\LABSI\PROG\PROGv1/PROGv1.ino:157
		g_contador = 0;
	}
	g_display_counter++;

}
ISR(PCINT1_vect) {
     35e:	1f 92       	push	r1
     360:	0f 92       	push	r0
     362:	0f b6       	in	r0, 0x3f	; 63
     364:	0f 92       	push	r0
     366:	11 24       	eor	r1, r1
     368:	2f 93       	push	r18
     36a:	3f 93       	push	r19
     36c:	8f 93       	push	r24
     36e:	9f 93       	push	r25
C:\Users\Utilizador\Desktop\RAFA\UNI\LABSI-LUMINOSIDADE\LABSI\PROG\PROGv1/PROGv1.ino:158
	uint8_t current_state = PINC & (1 << PC1);
     370:	86 b1       	in	r24, 0x06	; 6
     372:	82 70       	andi	r24, 0x02	; 2
C:\Users\Utilizador\Desktop\RAFA\UNI\LABSI-LUMINOSIDADE\LABSI\PROG\PROGv1/PROGv1.ino:159
	if(current_state > g_prev_pc1_state) {
     374:	90 91 6f 01 	lds	r25, 0x016F	; 0x80016f <g_prev_pc1_state>
     378:	98 17       	cp	r25, r24
     37a:	30 f5       	brcc	.+76     	; 0x3c8 <__vector_4+0x6a>
C:\Users\Utilizador\Desktop\RAFA\UNI\LABSI-LUMINOSIDADE\LABSI\PROG\PROGv1/PROGv1.ino:161
		// Transição de 0 para 1 detectada
		if(!g_mode_locked) {
     37c:	90 91 6e 01 	lds	r25, 0x016E	; 0x80016e <g_mode_locked>
     380:	91 11       	cpse	r25, r1
     382:	14 c0       	rjmp	.+40     	; 0x3ac <__vector_4+0x4e>
C:\Users\Utilizador\Desktop\RAFA\UNI\LABSI-LUMINOSIDADE\LABSI\PROG\PROGv1/PROGv1.ino:163
			// Alternar Modo (apenas uma vez)
			if(g_operating_mode == MODE_AUTOMATIC) {
     384:	90 91 98 01 	lds	r25, 0x0198	; 0x800198 <g_operating_mode>
     388:	91 11       	cpse	r25, r1
     38a:	1b c0       	rjmp	.+54     	; 0x3c2 <__vector_4+0x64>
C:\Users\Utilizador\Desktop\RAFA\UNI\LABSI-LUMINOSIDADE\LABSI\PROG\PROGv1/PROGv1.ino:164
				g_operating_mode = MODE_MANUAL;
     38c:	91 e0       	ldi	r25, 0x01	; 1
     38e:	90 93 98 01 	sts	0x0198, r25	; 0x800198 <g_operating_mode>
C:\Users\Utilizador\Desktop\RAFA\UNI\LABSI-LUMINOSIDADE\LABSI\PROG\PROGv1/PROGv1.ino:168
			} else {
				g_operating_mode = MODE_AUTOMATIC;
			}
			g_mode_changed = 1; // Sinalizar ao main loop
     392:	91 e0       	ldi	r25, 0x01	; 1
     394:	90 93 00 01 	sts	0x0100, r25	; 0x800100 <__data_start>
control_motor():
C:\Users\Utilizador\Desktop\RAFA\UNI\LABSI-LUMINOSIDADE\LABSI\PROG\PROGv1/PROGv1.ino:454
			valor_pwm = 125;
			g_estado_atual = FECHAR;
			break;
		case PARAR:
			valor_pwm = 188;
			g_estado_atual = PARAR;
     398:	90 93 96 01 	sts	0x0196, r25	; 0x800196 <g_estado_atual>
C:\Users\Utilizador\Desktop\RAFA\UNI\LABSI-LUMINOSIDADE\LABSI\PROG\PROGv1/PROGv1.ino:461
		case ABRIR:
			valor_pwm = 250;
			g_estado_atual = ABRIR;
			break;
	}
	OCR1A = valor_pwm;
     39c:	2c eb       	ldi	r18, 0xBC	; 188
     39e:	30 e0       	ldi	r19, 0x00	; 0
     3a0:	30 93 89 00 	sts	0x0089, r19	; 0x800089 <__DATA_REGION_ORIGIN__+0x29>
     3a4:	20 93 88 00 	sts	0x0088, r18	; 0x800088 <__DATA_REGION_ORIGIN__+0x28>
__vector_4():
C:\Users\Utilizador\Desktop\RAFA\UNI\LABSI-LUMINOSIDADE\LABSI\PROG\PROGv1/PROGv1.ino:171
				g_operating_mode = MODE_AUTOMATIC;
			}
			g_mode_changed = 1; // Sinalizar ao main loop
			control_motor(1);
			//buzzer_bips(1); // 1 bip na troca de modo
			g_mode_locked = 1; // Bloquear mais mudanças
     3a8:	90 93 6e 01 	sts	0x016E, r25	; 0x80016e <g_mode_locked>
C:\Users\Utilizador\Desktop\RAFA\UNI\LABSI-LUMINOSIDADE\LABSI\PROG\PROGv1/PROGv1.ino:177
		}
	} else if(current_state < g_prev_pc1_state) {
		// Transição de 1 para 0 detectada
		g_mode_locked = 0; // Desbloquear sistema para o próximo toque
	}
	g_prev_pc1_state = current_state;
     3ac:	80 93 6f 01 	sts	0x016F, r24	; 0x80016f <g_prev_pc1_state>
C:\Users\Utilizador\Desktop\RAFA\UNI\LABSI-LUMINOSIDADE\LABSI\PROG\PROGv1/PROGv1.ino:178
}
     3b0:	9f 91       	pop	r25
     3b2:	8f 91       	pop	r24
     3b4:	3f 91       	pop	r19
     3b6:	2f 91       	pop	r18
     3b8:	0f 90       	pop	r0
     3ba:	0f be       	out	0x3f, r0	; 63
     3bc:	0f 90       	pop	r0
     3be:	1f 90       	pop	r1
     3c0:	18 95       	reti
C:\Users\Utilizador\Desktop\RAFA\UNI\LABSI-LUMINOSIDADE\LABSI\PROG\PROGv1/PROGv1.ino:166
		if(!g_mode_locked) {
			// Alternar Modo (apenas uma vez)
			if(g_operating_mode == MODE_AUTOMATIC) {
				g_operating_mode = MODE_MANUAL;
			} else {
				g_operating_mode = MODE_AUTOMATIC;
     3c2:	10 92 98 01 	sts	0x0198, r1	; 0x800198 <g_operating_mode>
     3c6:	e5 cf       	rjmp	.-54     	; 0x392 <__vector_4+0x34>
C:\Users\Utilizador\Desktop\RAFA\UNI\LABSI-LUMINOSIDADE\LABSI\PROG\PROGv1/PROGv1.ino:173
			g_mode_changed = 1; // Sinalizar ao main loop
			control_motor(1);
			//buzzer_bips(1); // 1 bip na troca de modo
			g_mode_locked = 1; // Bloquear mais mudanças
		}
	} else if(current_state < g_prev_pc1_state) {
     3c8:	90 91 6f 01 	lds	r25, 0x016F	; 0x80016f <g_prev_pc1_state>
     3cc:	89 17       	cp	r24, r25
     3ce:	70 f7       	brcc	.-36     	; 0x3ac <__vector_4+0x4e>
C:\Users\Utilizador\Desktop\RAFA\UNI\LABSI-LUMINOSIDADE\LABSI\PROG\PROGv1/PROGv1.ino:175
		// Transição de 1 para 0 detectada
		g_mode_locked = 0; // Desbloquear sistema para o próximo toque
     3d0:	10 92 6e 01 	sts	0x016E, r1	; 0x80016e <g_mode_locked>
     3d4:	eb cf       	rjmp	.-42     	; 0x3ac <__vector_4+0x4e>

000003d6 <__vector_14>:
__vector_14():
C:\Users\Utilizador\Desktop\RAFA\UNI\LABSI-LUMINOSIDADE\LABSI\PROG\PROGv1/PROGv1.ino:127
		// Cada bip dura 400ms (200 ticks * 2ms)
		g_buzzer_counter = num_bips * 200;
	}
}
// --- Timer ISR (2ms) ---
ISR(TIMER0_COMPA_vect) {
     3d6:	1f 92       	push	r1
     3d8:	0f 92       	push	r0
     3da:	0f b6       	in	r0, 0x3f	; 63
     3dc:	0f 92       	push	r0
     3de:	11 24       	eor	r1, r1
     3e0:	6f 93       	push	r22
     3e2:	7f 93       	push	r23
     3e4:	8f 93       	push	r24
     3e6:	9f 93       	push	r25
C:\Users\Utilizador\Desktop\RAFA\UNI\LABSI-LUMINOSIDADE\LABSI\PROG\PROGv1/PROGv1.ino:128
	g_flag_2ms = 1;
     3e8:	81 e0       	ldi	r24, 0x01	; 1
     3ea:	80 93 9b 01 	sts	0x019B, r24	; 0x80019b <g_flag_2ms>
C:\Users\Utilizador\Desktop\RAFA\UNI\LABSI-LUMINOSIDADE\LABSI\PROG\PROGv1/PROGv1.ino:129
	if(g_delay_counter_2ms > 0) {
     3ee:	80 91 70 01 	lds	r24, 0x0170	; 0x800170 <g_delay_counter_2ms>
     3f2:	90 91 71 01 	lds	r25, 0x0171	; 0x800171 <g_delay_counter_2ms+0x1>
     3f6:	89 2b       	or	r24, r25
     3f8:	49 f0       	breq	.+18     	; 0x40c <__LOCK_REGION_LENGTH__+0xc>
C:\Users\Utilizador\Desktop\RAFA\UNI\LABSI-LUMINOSIDADE\LABSI\PROG\PROGv1/PROGv1.ino:130
		g_delay_counter_2ms--;
     3fa:	80 91 70 01 	lds	r24, 0x0170	; 0x800170 <g_delay_counter_2ms>
     3fe:	90 91 71 01 	lds	r25, 0x0171	; 0x800171 <g_delay_counter_2ms+0x1>
     402:	01 97       	sbiw	r24, 0x01	; 1
     404:	90 93 71 01 	sts	0x0171, r25	; 0x800171 <g_delay_counter_2ms+0x1>
     408:	80 93 70 01 	sts	0x0170, r24	; 0x800170 <g_delay_counter_2ms>
C:\Users\Utilizador\Desktop\RAFA\UNI\LABSI-LUMINOSIDADE\LABSI\PROG\PROGv1/PROGv1.ino:132
	}
	if(g_fix_state == 2 && g_fix_timer > 0) {
     40c:	80 91 94 01 	lds	r24, 0x0194	; 0x800194 <g_fix_state>
     410:	82 30       	cpi	r24, 0x02	; 2
     412:	79 f4       	brne	.+30     	; 0x432 <__LOCK_REGION_LENGTH__+0x32>
     414:	80 91 89 01 	lds	r24, 0x0189	; 0x800189 <g_fix_timer>
     418:	90 91 8a 01 	lds	r25, 0x018A	; 0x80018a <g_fix_timer+0x1>
     41c:	89 2b       	or	r24, r25
     41e:	49 f0       	breq	.+18     	; 0x432 <__LOCK_REGION_LENGTH__+0x32>
C:\Users\Utilizador\Desktop\RAFA\UNI\LABSI-LUMINOSIDADE\LABSI\PROG\PROGv1/PROGv1.ino:133
		g_fix_timer--;
     420:	80 91 89 01 	lds	r24, 0x0189	; 0x800189 <g_fix_timer>
     424:	90 91 8a 01 	lds	r25, 0x018A	; 0x80018a <g_fix_timer+0x1>
     428:	01 97       	sbiw	r24, 0x01	; 1
     42a:	90 93 8a 01 	sts	0x018A, r25	; 0x80018a <g_fix_timer+0x1>
     42e:	80 93 89 01 	sts	0x0189, r24	; 0x800189 <g_fix_timer>
C:\Users\Utilizador\Desktop\RAFA\UNI\LABSI-LUMINOSIDADE\LABSI\PROG\PROGv1/PROGv1.ino:136
	}
	// Timer de gesto (sonares)
	if(g_gesture_timer > 0) {
     432:	80 91 92 01 	lds	r24, 0x0192	; 0x800192 <g_gesture_timer>
     436:	90 91 93 01 	lds	r25, 0x0193	; 0x800193 <g_gesture_timer+0x1>
     43a:	89 2b       	or	r24, r25
     43c:	49 f0       	breq	.+18     	; 0x450 <__LOCK_REGION_LENGTH__+0x50>
C:\Users\Utilizador\Desktop\RAFA\UNI\LABSI-LUMINOSIDADE\LABSI\PROG\PROGv1/PROGv1.ino:137
		g_gesture_timer--;
     43e:	80 91 92 01 	lds	r24, 0x0192	; 0x800192 <g_gesture_timer>
     442:	90 91 93 01 	lds	r25, 0x0193	; 0x800193 <g_gesture_timer+0x1>
     446:	01 97       	sbiw	r24, 0x01	; 1
     448:	90 93 93 01 	sts	0x0193, r25	; 0x800193 <g_gesture_timer+0x1>
     44c:	80 93 92 01 	sts	0x0192, r24	; 0x800192 <g_gesture_timer>
C:\Users\Utilizador\Desktop\RAFA\UNI\LABSI-LUMINOSIDADE\LABSI\PROG\PROGv1/PROGv1.ino:140
	}
	// Controlo do Buzzer
	if(g_buzzer_counter > 0) {
     450:	80 91 6d 01 	lds	r24, 0x016D	; 0x80016d <g_buzzer_counter>
     454:	88 23       	and	r24, r24
     456:	69 f1       	breq	.+90     	; 0x4b2 <__LOCK_REGION_LENGTH__+0xb2>
C:\Users\Utilizador\Desktop\RAFA\UNI\LABSI-LUMINOSIDADE\LABSI\PROG\PROGv1/PROGv1.ino:141
		g_buzzer_counter--;
     458:	80 91 6d 01 	lds	r24, 0x016D	; 0x80016d <g_buzzer_counter>
     45c:	81 50       	subi	r24, 0x01	; 1
     45e:	80 93 6d 01 	sts	0x016D, r24	; 0x80016d <g_buzzer_counter>
C:\Users\Utilizador\Desktop\RAFA\UNI\LABSI-LUMINOSIDADE\LABSI\PROG\PROGv1/PROGv1.ino:143
		// Alterna o Buzzer (PC0) a cada 50ms (25 ticks)
		if(g_buzzer_counter % 25 == 0) {
     462:	80 91 6d 01 	lds	r24, 0x016D	; 0x80016d <g_buzzer_counter>
     466:	69 e1       	ldi	r22, 0x19	; 25
     468:	0e 94 bc 06 	call	0xd78	; 0xd78 <__udivmodqi4>
     46c:	91 11       	cpse	r25, r1
     46e:	04 c0       	rjmp	.+8      	; 0x478 <__LOCK_REGION_LENGTH__+0x78>
C:\Users\Utilizador\Desktop\RAFA\UNI\LABSI-LUMINOSIDADE\LABSI\PROG\PROGv1/PROGv1.ino:144
			PORTC ^= (1 << BUZZER_PIN);
     470:	88 b1       	in	r24, 0x08	; 8
     472:	91 e0       	ldi	r25, 0x01	; 1
     474:	89 27       	eor	r24, r25
     476:	88 b9       	out	0x08, r24	; 8
C:\Users\Utilizador\Desktop\RAFA\UNI\LABSI-LUMINOSIDADE\LABSI\PROG\PROGv1/PROGv1.ino:149
		}
	} else {
		PORTC &= ~(1 << BUZZER_PIN); // Desliga o Buzzer
	}
	g_contador++;
     478:	80 91 6c 01 	lds	r24, 0x016C	; 0x80016c <__data_end>
     47c:	8f 5f       	subi	r24, 0xFF	; 255
     47e:	80 93 6c 01 	sts	0x016C, r24	; 0x80016c <__data_end>
C:\Users\Utilizador\Desktop\RAFA\UNI\LABSI-LUMINOSIDADE\LABSI\PROG\PROGv1/PROGv1.ino:150
	if(g_contador >= 250) {
     482:	80 91 6c 01 	lds	r24, 0x016C	; 0x80016c <__data_end>
     486:	8a 3f       	cpi	r24, 0xFA	; 250
     488:	30 f0       	brcs	.+12     	; 0x496 <__LOCK_REGION_LENGTH__+0x96>
C:\Users\Utilizador\Desktop\RAFA\UNI\LABSI-LUMINOSIDADE\LABSI\PROG\PROGv1/PROGv1.ino:151
		PORTD ^= (1 << PD6);
     48a:	8b b1       	in	r24, 0x0b	; 11
     48c:	90 e4       	ldi	r25, 0x40	; 64
     48e:	89 27       	eor	r24, r25
     490:	8b b9       	out	0x0b, r24	; 11
C:\Users\Utilizador\Desktop\RAFA\UNI\LABSI-LUMINOSIDADE\LABSI\PROG\PROGv1/PROGv1.ino:152
		g_contador = 0;
     492:	10 92 6c 01 	sts	0x016C, r1	; 0x80016c <__data_end>
C:\Users\Utilizador\Desktop\RAFA\UNI\LABSI-LUMINOSIDADE\LABSI\PROG\PROGv1/PROGv1.ino:154
	}
	g_display_counter++;
     496:	80 91 95 01 	lds	r24, 0x0195	; 0x800195 <g_display_counter>
     49a:	8f 5f       	subi	r24, 0xFF	; 255
     49c:	80 93 95 01 	sts	0x0195, r24	; 0x800195 <g_display_counter>
C:\Users\Utilizador\Desktop\RAFA\UNI\LABSI-LUMINOSIDADE\LABSI\PROG\PROGv1/PROGv1.ino:156

}
     4a0:	9f 91       	pop	r25
     4a2:	8f 91       	pop	r24
     4a4:	7f 91       	pop	r23
     4a6:	6f 91       	pop	r22
     4a8:	0f 90       	pop	r0
     4aa:	0f be       	out	0x3f, r0	; 63
     4ac:	0f 90       	pop	r0
     4ae:	1f 90       	pop	r1
     4b0:	18 95       	reti
C:\Users\Utilizador\Desktop\RAFA\UNI\LABSI-LUMINOSIDADE\LABSI\PROG\PROGv1/PROGv1.ino:147
		// Alterna o Buzzer (PC0) a cada 50ms (25 ticks)
		if(g_buzzer_counter % 25 == 0) {
			PORTC ^= (1 << BUZZER_PIN);
		}
	} else {
		PORTC &= ~(1 << BUZZER_PIN); // Desliga o Buzzer
     4b2:	40 98       	cbi	0x08, 0	; 8
     4b4:	e1 cf       	rjmp	.-62     	; 0x478 <__LOCK_REGION_LENGTH__+0x78>

000004b6 <main>:
main():
C:\Users\Utilizador\Desktop\RAFA\UNI\LABSI-LUMINOSIDADE\LABSI\PROG\PROGv1/PROGv1.ino:635
			}
			break;
	}
}
// --- LOOP PRINCIPAL ---
int main(void) {
     4b6:	cf 93       	push	r28
     4b8:	df 93       	push	r29
     4ba:	cd b7       	in	r28, 0x3d	; 61
     4bc:	de b7       	in	r29, 0x3e	; 62
     4be:	a1 97       	sbiw	r28, 0x21	; 33
     4c0:	0f b6       	in	r0, 0x3f	; 63
     4c2:	f8 94       	cli
     4c4:	de bf       	out	0x3e, r29	; 62
     4c6:	0f be       	out	0x3f, r0	; 63
     4c8:	cd bf       	out	0x3d, r28	; 61
onda1Hz_init():
C:\Users\Utilizador\Desktop\RAFA\UNI\LABSI-LUMINOSIDADE\LABSI\PROG\PROGv1/PROGv1.ino:413
	}
	return sum / AVG_SAMPLES;
}
// --- Timer 0 for 2ms interrupt ---
void onda1Hz_init(void) {
	DDRD |= (1 << PD6);
     4ca:	56 9a       	sbi	0x0a, 6	; 10
C:\Users\Utilizador\Desktop\RAFA\UNI\LABSI-LUMINOSIDADE\LABSI\PROG\PROGv1/PROGv1.ino:414
	PORTD &= ~(1 << PD6);
     4cc:	5e 98       	cbi	0x0b, 6	; 11
C:\Users\Utilizador\Desktop\RAFA\UNI\LABSI-LUMINOSIDADE\LABSI\PROG\PROGv1/PROGv1.ino:415
	TCCR0A = (1 << WGM01); // CTC Mode
     4ce:	82 e0       	ldi	r24, 0x02	; 2
     4d0:	84 bd       	out	0x24, r24	; 36
C:\Users\Utilizador\Desktop\RAFA\UNI\LABSI-LUMINOSIDADE\LABSI\PROG\PROGv1/PROGv1.ino:416
	TCCR0B = (1 << CS02) | (1 << CS00); // Prescaler 1024
     4d2:	95 e0       	ldi	r25, 0x05	; 5
     4d4:	95 bd       	out	0x25, r25	; 37
C:\Users\Utilizador\Desktop\RAFA\UNI\LABSI-LUMINOSIDADE\LABSI\PROG\PROGv1/PROGv1.ino:417
	OCR0A = 31; // (16M / 1024) / (31+1) = 500 Hz (2ms)
     4d6:	9f e1       	ldi	r25, 0x1F	; 31
     4d8:	97 bd       	out	0x27, r25	; 39
C:\Users\Utilizador\Desktop\RAFA\UNI\LABSI-LUMINOSIDADE\LABSI\PROG\PROGv1/PROGv1.ino:418
	TIMSK0 = (1 << OCIE0A);
     4da:	80 93 6e 00 	sts	0x006E, r24	; 0x80006e <__DATA_REGION_ORIGIN__+0xe>
pwm_Servo_init():
C:\Users\Utilizador\Desktop\RAFA\UNI\LABSI-LUMINOSIDADE\LABSI\PROG\PROGv1/PROGv1.ino:421
}
void pwm_Servo_init(void) {
	DDRB |= (1 << PB1);
     4de:	21 9a       	sbi	0x04, 1	; 4
C:\Users\Utilizador\Desktop\RAFA\UNI\LABSI-LUMINOSIDADE\LABSI\PROG\PROGv1/PROGv1.ino:422
	TCCR1A |= (1 << COM1A1) | (1 << WGM11);//PC
     4e0:	80 91 80 00 	lds	r24, 0x0080	; 0x800080 <__DATA_REGION_ORIGIN__+0x20>
     4e4:	82 68       	ori	r24, 0x82	; 130
     4e6:	80 93 80 00 	sts	0x0080, r24	; 0x800080 <__DATA_REGION_ORIGIN__+0x20>
C:\Users\Utilizador\Desktop\RAFA\UNI\LABSI-LUMINOSIDADE\LABSI\PROG\PROGv1/PROGv1.ino:423
	TCCR1B |= (1 << WGM13) | (1 << CS11) | (1 << CS10) | (1 << ICNC1); // prescaler 64, noise cancelling
     4ea:	80 91 81 00 	lds	r24, 0x0081	; 0x800081 <__DATA_REGION_ORIGIN__+0x21>
     4ee:	83 69       	ori	r24, 0x93	; 147
     4f0:	80 93 81 00 	sts	0x0081, r24	; 0x800081 <__DATA_REGION_ORIGIN__+0x21>
C:\Users\Utilizador\Desktop\RAFA\UNI\LABSI-LUMINOSIDADE\LABSI\PROG\PROGv1/PROGv1.ino:424
	ICR1 = 2500; // 20 ms (50 Hz)
     4f4:	84 ec       	ldi	r24, 0xC4	; 196
     4f6:	99 e0       	ldi	r25, 0x09	; 9
     4f8:	90 93 87 00 	sts	0x0087, r25	; 0x800087 <__DATA_REGION_ORIGIN__+0x27>
     4fc:	80 93 86 00 	sts	0x0086, r24	; 0x800086 <__DATA_REGION_ORIGIN__+0x26>
C:\Users\Utilizador\Desktop\RAFA\UNI\LABSI-LUMINOSIDADE\LABSI\PROG\PROGv1/PROGv1.ino:425
	OCR1A = 188;
     500:	8c eb       	ldi	r24, 0xBC	; 188
     502:	90 e0       	ldi	r25, 0x00	; 0
     504:	90 93 89 00 	sts	0x0089, r25	; 0x800089 <__DATA_REGION_ORIGIN__+0x29>
     508:	80 93 88 00 	sts	0x0088, r24	; 0x800088 <__DATA_REGION_ORIGIN__+0x28>
buttons_inic():
C:\Users\Utilizador\Desktop\RAFA\UNI\LABSI-LUMINOSIDADE\LABSI\PROG\PROGv1/PROGv1.ino:429
}
void buttons_inic(void) {
	// Botão touch PC1
	DDRC &= ~(1 << BOTAO_TOUCH);
     50c:	39 98       	cbi	0x07, 1	; 7
C:\Users\Utilizador\Desktop\RAFA\UNI\LABSI-LUMINOSIDADE\LABSI\PROG\PROGv1/PROGv1.ino:430
	PORTC &= ~(1 << BOTAO_TOUCH);
     50e:	41 98       	cbi	0x08, 1	; 8
C:\Users\Utilizador\Desktop\RAFA\UNI\LABSI-LUMINOSIDADE\LABSI\PROG\PROGv1/PROGv1.ino:432
	// Botões +/- em PD4 e PD7
	DDRD &= ~((1 << BOTAO_MAIS) | (1 << BOTAO_MENOS));
     510:	8a b1       	in	r24, 0x0a	; 10
     512:	8f 76       	andi	r24, 0x6F	; 111
     514:	8a b9       	out	0x0a, r24	; 10
C:\Users\Utilizador\Desktop\RAFA\UNI\LABSI-LUMINOSIDADE\LABSI\PROG\PROGv1/PROGv1.ino:433
	PORTD &= ~((1 << BOTAO_MAIS) | (1 << BOTAO_MENOS));
     516:	8b b1       	in	r24, 0x0b	; 11
     518:	8f 76       	andi	r24, 0x6F	; 111
     51a:	8b b9       	out	0x0b, r24	; 11
C:\Users\Utilizador\Desktop\RAFA\UNI\LABSI-LUMINOSIDADE\LABSI\PROG\PROGv1/PROGv1.ino:435
	// BUZZER
	DDRC |= (1 << BUZZER_PIN);
     51c:	38 9a       	sbi	0x07, 0	; 7
C:\Users\Utilizador\Desktop\RAFA\UNI\LABSI-LUMINOSIDADE\LABSI\PROG\PROGv1/PROGv1.ino:436
	PORTC &= ~(1 << BUZZER_PIN);
     51e:	40 98       	cbi	0x08, 0	; 8
C:\Users\Utilizador\Desktop\RAFA\UNI\LABSI-LUMINOSIDADE\LABSI\PROG\PROGv1/PROGv1.ino:438
	// Sonares: TRIG como saída, ECHO como entrada
	DDRD |= (1 << SONAR1_TRIG) | (1 << SONAR2_TRIG);
     520:	8a b1       	in	r24, 0x0a	; 10
     522:	83 60       	ori	r24, 0x03	; 3
     524:	8a b9       	out	0x0a, r24	; 10
C:\Users\Utilizador\Desktop\RAFA\UNI\LABSI-LUMINOSIDADE\LABSI\PROG\PROGv1/PROGv1.ino:439
	DDRD &= ~((1 << SONAR1_ECHO) | (1 << SONAR2_ECHO));
     526:	8a b1       	in	r24, 0x0a	; 10
     528:	83 7f       	andi	r24, 0xF3	; 243
     52a:	8a b9       	out	0x0a, r24	; 10
C:\Users\Utilizador\Desktop\RAFA\UNI\LABSI-LUMINOSIDADE\LABSI\PROG\PROGv1/PROGv1.ino:440
	PORTD &= ~((1 << SONAR1_ECHO) | (1 << SONAR2_ECHO)); // sem pull-up
     52c:	8b b1       	in	r24, 0x0b	; 11
     52e:	83 7f       	andi	r24, 0xF3	; 243
     530:	8b b9       	out	0x0b, r24	; 11
C:\Users\Utilizador\Desktop\RAFA\UNI\LABSI-LUMINOSIDADE\LABSI\PROG\PROGv1/PROGv1.ino:442
	// Interrupção de PC1 (botão touch)
	PCICR |= (1 << PCIE1);
     532:	80 91 68 00 	lds	r24, 0x0068	; 0x800068 <__DATA_REGION_ORIGIN__+0x8>
     536:	82 60       	ori	r24, 0x02	; 2
     538:	80 93 68 00 	sts	0x0068, r24	; 0x800068 <__DATA_REGION_ORIGIN__+0x8>
C:\Users\Utilizador\Desktop\RAFA\UNI\LABSI-LUMINOSIDADE\LABSI\PROG\PROGv1/PROGv1.ino:443
	PCMSK1 |= (1 << PCINT9);
     53c:	80 91 6c 00 	lds	r24, 0x006C	; 0x80006c <__DATA_REGION_ORIGIN__+0xc>
     540:	82 60       	ori	r24, 0x02	; 2
     542:	80 93 6c 00 	sts	0x006C, r24	; 0x80006c <__DATA_REGION_ORIGIN__+0xc>
inic():
C:\Users\Utilizador\Desktop\RAFA\UNI\LABSI-LUMINOSIDADE\LABSI\PROG\PROGv1/PROGv1.ino:560
// --- FUNÇÃO DE INICIALIZAÇÃO DE HARDWARE ---
void inic(void) {
	onda1Hz_init();
	pwm_Servo_init();
	buttons_inic();
	sei();
     546:	78 94       	sei
average_lux():
C:\Users\Utilizador\Desktop\RAFA\UNI\LABSI-LUMINOSIDADE\LABSI\PROG\PROGv1/PROGv1.ino:404
	return 0;
}
// --- Averaging Function ---
uint16_t average_lux(uint16_t new_reading) {
	lux_buffer[g_buffer_index] = new_reading;
	g_buffer_index = (g_buffer_index + 1) % AVG_SAMPLES;
     548:	6a e0       	ldi	r22, 0x0A	; 10
     54a:	c6 2e       	mov	r12, r22
     54c:	d1 2c       	mov	r13, r1
C:\Users\Utilizador\Desktop\RAFA\UNI\LABSI-LUMINOSIDADE\LABSI\PROG\PROGv1/PROGv1.ino:409
	uint32_t sum = 0;
	for(uint8_t i = 0; i < AVG_SAMPLES; i++) {
		sum += lux_buffer[i];
	}
	return sum / AVG_SAMPLES;
     54e:	7a e0       	ldi	r23, 0x0A	; 10
     550:	27 2e       	mov	r2, r23
     552:	31 2c       	mov	r3, r1
     554:	41 2c       	mov	r4, r1
     556:	51 2c       	mov	r5, r1
main():
C:\Users\Utilizador\Desktop\RAFA\UNI\LABSI-LUMINOSIDADE\LABSI\PROG\PROGv1/PROGv1.ino:683
					// Define valor de display (Preview vs Fixo)
					uint16_t display_setpoint = g_target_lux;
					if(g_fix_state != 0) {
						display_setpoint = g_last_setpoint_value;
					}
					sprintf(buffer, "MODO:%s SET:%4u",
     558:	9e 01       	movw	r18, r28
     55a:	2f 5f       	subi	r18, 0xFF	; 255
     55c:	3f 4f       	sbci	r19, 0xFF	; 255
     55e:	79 01       	movw	r14, r18
control_motor():
C:\Users\Utilizador\Desktop\RAFA\UNI\LABSI-LUMINOSIDADE\LABSI\PROG\PROGv1/PROGv1.ino:461
		case ABRIR:
			valor_pwm = 250;
			g_estado_atual = ABRIR;
			break;
	}
	OCR1A = valor_pwm;
     560:	ed e7       	ldi	r30, 0x7D	; 125
     562:	ae 2e       	mov	r10, r30
     564:	b1 2c       	mov	r11, r1
     566:	fa ef       	ldi	r31, 0xFA	; 250
     568:	8f 2e       	mov	r8, r31
     56a:	91 2c       	mov	r9, r1
update_manual_gestures():
C:\Users\Utilizador\Desktop\RAFA\UNI\LABSI-LUMINOSIDADE\LABSI\PROG\PROGv1/PROGv1.ino:533
		if(s1 && !s1_prev) {
			g_gesture_state = 1; // S1 primeiro (de baixo para cima)
			g_gesture_timer = GESTURE_TIMEOUT_TICKS;
		} else if(s2 && !s2_prev) {
			g_gesture_state = 2; // S2 primeiro (de cima para baixo)
			g_gesture_timer = GESTURE_TIMEOUT_TICKS;
     56c:	a4 ef       	ldi	r26, 0xF4	; 244
     56e:	6a 2e       	mov	r6, r26
     570:	77 24       	eor	r7, r7
     572:	73 94       	inc	r7
main():
C:\Users\Utilizador\Desktop\RAFA\UNI\LABSI-LUMINOSIDADE\LABSI\PROG\PROGv1/PROGv1.ino:640
int main(void) {
	inic();
	char buffer[32];
	while(1) {
		// 1. GESTÃO DA INICIALIZAÇÃO (NON-BLOCKING)
		if(!g_setup_done) {
     574:	80 91 9c 01 	lds	r24, 0x019C	; 0x80019c <g_setup_done>
     578:	81 11       	cpse	r24, r1
     57a:	ef c0       	rjmp	.+478    	; 0x75a <main+0x2a4>
inic_non_blocking():
C:\Users\Utilizador\Desktop\RAFA\UNI\LABSI-LUMINOSIDADE\LABSI\PROG\PROGv1/PROGv1.ino:564
	buttons_inic();
	sei();
}
// --- MÁQUINA DE ESTADOS PRINCIPAL (NON-BLOCKING) ---
void inic_non_blocking(void) {
	switch(g_init_state) {
     57c:	e0 91 8d 01 	lds	r30, 0x018D	; 0x80018d <g_init_state>
     580:	e8 30       	cpi	r30, 0x08	; 8
     582:	c0 f7       	brcc	.-16     	; 0x574 <main+0xbe>
     584:	f0 e0       	ldi	r31, 0x00	; 0
     586:	e9 53       	subi	r30, 0x39	; 57
     588:	fd 4f       	sbci	r31, 0xFD	; 253
     58a:	0c 94 fe 06 	jmp	0xdfc	; 0xdfc <__tablejump2__>
     58e:	cf 02       	muls	r28, r31
     590:	e9 02       	muls	r30, r25
     592:	f9 02       	muls	r31, r25
     594:	0a 03       	fmul	r16, r18
     596:	1b 03       	fmul	r17, r19
     598:	44 03       	mulsu	r20, r20
     59a:	76 03       	mulsu	r23, r22
     59c:	9f 03       	fmulsu	r17, r23
inic_i2c():
C:\Users\Utilizador\Desktop\RAFA\UNI\LABSI-LUMINOSIDADE\LABSI\PROG\PROGv1/PROGv1.ino:260
		}
	}
}
// --- I2C Functions ---
void inic_i2c(void) {
	TWCR |= (1 << TWEN);
     59e:	80 91 bc 00 	lds	r24, 0x00BC	; 0x8000bc <__DATA_REGION_ORIGIN__+0x5c>
     5a2:	84 60       	ori	r24, 0x04	; 4
     5a4:	80 93 bc 00 	sts	0x00BC, r24	; 0x8000bc <__DATA_REGION_ORIGIN__+0x5c>
C:\Users\Utilizador\Desktop\RAFA\UNI\LABSI-LUMINOSIDADE\LABSI\PROG\PROGv1/PROGv1.ino:261
	TWSR = 0;
     5a8:	10 92 b9 00 	sts	0x00B9, r1	; 0x8000b9 <__DATA_REGION_ORIGIN__+0x59>
C:\Users\Utilizador\Desktop\RAFA\UNI\LABSI-LUMINOSIDADE\LABSI\PROG\PROGv1/PROGv1.ino:262
	TWBR = 72;
     5ac:	88 e4       	ldi	r24, 0x48	; 72
     5ae:	80 93 b8 00 	sts	0x00B8, r24	; 0x8000b8 <__DATA_REGION_ORIGIN__+0x58>
C:\Users\Utilizador\Desktop\RAFA\UNI\LABSI-LUMINOSIDADE\LABSI\PROG\PROGv1/PROGv1.ino:263
	DDRC &= ~((1 << PC4) | (1 << PC5));
     5b2:	87 b1       	in	r24, 0x07	; 7
     5b4:	8f 7c       	andi	r24, 0xCF	; 207
     5b6:	87 b9       	out	0x07, r24	; 7
C:\Users\Utilizador\Desktop\RAFA\UNI\LABSI-LUMINOSIDADE\LABSI\PROG\PROGv1/PROGv1.ino:264
	PORTC |= (1 << PC4) | (1 << PC5);
     5b8:	88 b1       	in	r24, 0x08	; 8
     5ba:	80 63       	ori	r24, 0x30	; 48
     5bc:	88 b9       	out	0x08, r24	; 8
START_NB_DELAY_MS():
C:\Users\Utilizador\Desktop\RAFA\UNI\LABSI-LUMINOSIDADE\LABSI\PROG\PROGv1/PROGv1.ino:114
		}
	}
}
// --- ATRASO NON-BLOCKING (BASEADO EM 2MS) ---
void START_NB_DELAY_MS(uint16_t ms) {
	g_delay_counter_2ms = (ms / 2) + 1;
     5be:	8a e1       	ldi	r24, 0x1A	; 26
     5c0:	90 e0       	ldi	r25, 0x00	; 0
     5c2:	90 93 71 01 	sts	0x0171, r25	; 0x800171 <g_delay_counter_2ms+0x1>
     5c6:	80 93 70 01 	sts	0x0170, r24	; 0x800170 <g_delay_counter_2ms>
inic_non_blocking():
C:\Users\Utilizador\Desktop\RAFA\UNI\LABSI-LUMINOSIDADE\LABSI\PROG\PROGv1/PROGv1.ino:568
void inic_non_blocking(void) {
	switch(g_init_state) {
		case 0:
			inic_i2c();
			START_NB_DELAY_MS(50); // Power-on wait (50ms)
			g_init_state = 1;
     5ca:	81 e0       	ldi	r24, 0x01	; 1
C:\Users\Utilizador\Desktop\RAFA\UNI\LABSI-LUMINOSIDADE\LABSI\PROG\PROGv1/PROGv1.ino:629
			break;
		case 7:
			if(IS_DELAY_FINISHED() == 1) {
				lcd_clear();
				g_setup_done = 1;
				g_init_state = 255;
     5cc:	80 93 8d 01 	sts	0x018D, r24	; 0x80018d <g_init_state>
     5d0:	d1 cf       	rjmp	.-94     	; 0x574 <main+0xbe>
C:\Users\Utilizador\Desktop\RAFA\UNI\LABSI-LUMINOSIDADE\LABSI\PROG\PROGv1/PROGv1.ino:571
			inic_i2c();
			START_NB_DELAY_MS(50); // Power-on wait (50ms)
			g_init_state = 1;
			break;
		case 1:
			if(IS_DELAY_FINISHED() == 1) {
     5d2:	0e 94 d7 00 	call	0x1ae	; 0x1ae <IS_DELAY_FINISHED()>
     5d6:	81 30       	cpi	r24, 0x01	; 1
     5d8:	69 f6       	brne	.-102    	; 0x574 <main+0xbe>
C:\Users\Utilizador\Desktop\RAFA\UNI\LABSI-LUMINOSIDADE\LABSI\PROG\PROGv1/PROGv1.ino:572
				lcd_write_nibble(0x03, 0);
     5da:	60 e0       	ldi	r22, 0x00	; 0
     5dc:	83 e0       	ldi	r24, 0x03	; 3
     5de:	0e 94 66 01 	call	0x2cc	; 0x2cc <lcd_write_nibble(unsigned char, unsigned char)>
START_NB_DELAY_MS():
C:\Users\Utilizador\Desktop\RAFA\UNI\LABSI-LUMINOSIDADE\LABSI\PROG\PROGv1/PROGv1.ino:114
		}
	}
}
// --- ATRASO NON-BLOCKING (BASEADO EM 2MS) ---
void START_NB_DELAY_MS(uint16_t ms) {
	g_delay_counter_2ms = (ms / 2) + 1;
     5e2:	83 e0       	ldi	r24, 0x03	; 3
     5e4:	90 e0       	ldi	r25, 0x00	; 0
     5e6:	90 93 71 01 	sts	0x0171, r25	; 0x800171 <g_delay_counter_2ms+0x1>
     5ea:	80 93 70 01 	sts	0x0170, r24	; 0x800170 <g_delay_counter_2ms>
inic_non_blocking():
C:\Users\Utilizador\Desktop\RAFA\UNI\LABSI-LUMINOSIDADE\LABSI\PROG\PROGv1/PROGv1.ino:574
			break;
		case 1:
			if(IS_DELAY_FINISHED() == 1) {
				lcd_write_nibble(0x03, 0);
				START_NB_DELAY_MS(5);
				g_init_state = 2;
     5ee:	82 e0       	ldi	r24, 0x02	; 2
     5f0:	ed cf       	rjmp	.-38     	; 0x5cc <main+0x116>
C:\Users\Utilizador\Desktop\RAFA\UNI\LABSI-LUMINOSIDADE\LABSI\PROG\PROGv1/PROGv1.ino:578
			}
			break;
		case 2:
			if(IS_DELAY_FINISHED() == 1) {
     5f2:	0e 94 d7 00 	call	0x1ae	; 0x1ae <IS_DELAY_FINISHED()>
     5f6:	81 30       	cpi	r24, 0x01	; 1
     5f8:	09 f0       	breq	.+2      	; 0x5fc <main+0x146>
     5fa:	bc cf       	rjmp	.-136    	; 0x574 <main+0xbe>
C:\Users\Utilizador\Desktop\RAFA\UNI\LABSI-LUMINOSIDADE\LABSI\PROG\PROGv1/PROGv1.ino:579
				lcd_write_nibble(0x03, 0);
     5fc:	60 e0       	ldi	r22, 0x00	; 0
     5fe:	83 e0       	ldi	r24, 0x03	; 3
     600:	0e 94 66 01 	call	0x2cc	; 0x2cc <lcd_write_nibble(unsigned char, unsigned char)>
START_NB_DELAY_MS():
C:\Users\Utilizador\Desktop\RAFA\UNI\LABSI-LUMINOSIDADE\LABSI\PROG\PROGv1/PROGv1.ino:114
		}
	}
}
// --- ATRASO NON-BLOCKING (BASEADO EM 2MS) ---
void START_NB_DELAY_MS(uint16_t ms) {
	g_delay_counter_2ms = (ms / 2) + 1;
     604:	81 e0       	ldi	r24, 0x01	; 1
     606:	90 e0       	ldi	r25, 0x00	; 0
     608:	90 93 71 01 	sts	0x0171, r25	; 0x800171 <g_delay_counter_2ms+0x1>
     60c:	80 93 70 01 	sts	0x0170, r24	; 0x800170 <g_delay_counter_2ms>
inic_non_blocking():
C:\Users\Utilizador\Desktop\RAFA\UNI\LABSI-LUMINOSIDADE\LABSI\PROG\PROGv1/PROGv1.ino:581
			break;
		case 2:
			if(IS_DELAY_FINISHED() == 1) {
				lcd_write_nibble(0x03, 0);
				START_NB_DELAY_MS(1);
				g_init_state = 3;
     610:	83 e0       	ldi	r24, 0x03	; 3
     612:	dc cf       	rjmp	.-72     	; 0x5cc <main+0x116>
C:\Users\Utilizador\Desktop\RAFA\UNI\LABSI-LUMINOSIDADE\LABSI\PROG\PROGv1/PROGv1.ino:585
			}
			break;
		case 3:
			if(IS_DELAY_FINISHED() == 1) {
     614:	0e 94 d7 00 	call	0x1ae	; 0x1ae <IS_DELAY_FINISHED()>
     618:	81 30       	cpi	r24, 0x01	; 1
     61a:	09 f0       	breq	.+2      	; 0x61e <main+0x168>
     61c:	ab cf       	rjmp	.-170    	; 0x574 <main+0xbe>
C:\Users\Utilizador\Desktop\RAFA\UNI\LABSI-LUMINOSIDADE\LABSI\PROG\PROGv1/PROGv1.ino:586
				lcd_write_nibble(0x03, 0);
     61e:	60 e0       	ldi	r22, 0x00	; 0
     620:	83 e0       	ldi	r24, 0x03	; 3
     622:	0e 94 66 01 	call	0x2cc	; 0x2cc <lcd_write_nibble(unsigned char, unsigned char)>
START_NB_DELAY_MS():
C:\Users\Utilizador\Desktop\RAFA\UNI\LABSI-LUMINOSIDADE\LABSI\PROG\PROGv1/PROGv1.ino:114
		}
	}
}
// --- ATRASO NON-BLOCKING (BASEADO EM 2MS) ---
void START_NB_DELAY_MS(uint16_t ms) {
	g_delay_counter_2ms = (ms / 2) + 1;
     626:	81 e0       	ldi	r24, 0x01	; 1
     628:	90 e0       	ldi	r25, 0x00	; 0
     62a:	90 93 71 01 	sts	0x0171, r25	; 0x800171 <g_delay_counter_2ms+0x1>
     62e:	80 93 70 01 	sts	0x0170, r24	; 0x800170 <g_delay_counter_2ms>
inic_non_blocking():
C:\Users\Utilizador\Desktop\RAFA\UNI\LABSI-LUMINOSIDADE\LABSI\PROG\PROGv1/PROGv1.ino:588
			break;
		case 3:
			if(IS_DELAY_FINISHED() == 1) {
				lcd_write_nibble(0x03, 0);
				START_NB_DELAY_MS(1);
				g_init_state = 4;
     632:	84 e0       	ldi	r24, 0x04	; 4
     634:	cb cf       	rjmp	.-106    	; 0x5cc <main+0x116>
C:\Users\Utilizador\Desktop\RAFA\UNI\LABSI-LUMINOSIDADE\LABSI\PROG\PROGv1/PROGv1.ino:592
			}
			break;
		case 4:
			if(IS_DELAY_FINISHED() == 1) {
     636:	0e 94 d7 00 	call	0x1ae	; 0x1ae <IS_DELAY_FINISHED()>
     63a:	81 30       	cpi	r24, 0x01	; 1
     63c:	09 f0       	breq	.+2      	; 0x640 <main+0x18a>
     63e:	9a cf       	rjmp	.-204    	; 0x574 <main+0xbe>
C:\Users\Utilizador\Desktop\RAFA\UNI\LABSI-LUMINOSIDADE\LABSI\PROG\PROGv1/PROGv1.ino:593
				lcd_write_nibble(0x02, 0); // 4-bit mode
     640:	60 e0       	ldi	r22, 0x00	; 0
     642:	82 e0       	ldi	r24, 0x02	; 2
     644:	0e 94 66 01 	call	0x2cc	; 0x2cc <lcd_write_nibble(unsigned char, unsigned char)>
lcd_init_setup_cmds():
C:\Users\Utilizador\Desktop\RAFA\UNI\LABSI-LUMINOSIDADE\LABSI\PROG\PROGv1/PROGv1.ino:346
	while( * str) {
		lcd_write_byte( * str++, 1);
	}
}
void lcd_init_setup_cmds(void) {
	lcd_write_byte(0b00101000, 0); // Function set: 4-bit, 2 lines, 5x8 dots
     648:	60 e0       	ldi	r22, 0x00	; 0
     64a:	88 e2       	ldi	r24, 0x28	; 40
     64c:	0e 94 93 01 	call	0x326	; 0x326 <lcd_write_byte(unsigned char, unsigned char)>
C:\Users\Utilizador\Desktop\RAFA\UNI\LABSI-LUMINOSIDADE\LABSI\PROG\PROGv1/PROGv1.ino:347
	lcd_write_byte(0b00001100, 0); // Display on, cursor off, blink off
     650:	60 e0       	ldi	r22, 0x00	; 0
     652:	8c e0       	ldi	r24, 0x0C	; 12
     654:	0e 94 93 01 	call	0x326	; 0x326 <lcd_write_byte(unsigned char, unsigned char)>
C:\Users\Utilizador\Desktop\RAFA\UNI\LABSI-LUMINOSIDADE\LABSI\PROG\PROGv1/PROGv1.ino:348
	lcd_write_byte(0b00000001, 0); // Clear Display
     658:	60 e0       	ldi	r22, 0x00	; 0
     65a:	81 e0       	ldi	r24, 0x01	; 1
     65c:	0e 94 93 01 	call	0x326	; 0x326 <lcd_write_byte(unsigned char, unsigned char)>
C:\Users\Utilizador\Desktop\RAFA\UNI\LABSI-LUMINOSIDADE\LABSI\PROG\PROGv1/PROGv1.ino:349
	lcd_write_byte(0b00000110, 0); // Entry mode: Increment cursor, no display shift
     660:	60 e0       	ldi	r22, 0x00	; 0
     662:	86 e0       	ldi	r24, 0x06	; 6
     664:	0e 94 93 01 	call	0x326	; 0x326 <lcd_write_byte(unsigned char, unsigned char)>
lcd_set_cursor():
C:\Users\Utilizador\Desktop\RAFA\UNI\LABSI-LUMINOSIDADE\LABSI\PROG\PROGv1/PROGv1.ino:338
	if(row == 0) {
		addr = 0b10000000 + col;
	} else {
		addr = 0b11000000 + col;
	}
	lcd_write_byte(addr, 0);
     668:	60 e0       	ldi	r22, 0x00	; 0
     66a:	80 e8       	ldi	r24, 0x80	; 128
     66c:	0e 94 93 01 	call	0x326	; 0x326 <lcd_write_byte(unsigned char, unsigned char)>
inic_non_blocking():
C:\Users\Utilizador\Desktop\RAFA\UNI\LABSI-LUMINOSIDADE\LABSI\PROG\PROGv1/PROGv1.ino:596
		case 4:
			if(IS_DELAY_FINISHED() == 1) {
				lcd_write_nibble(0x02, 0); // 4-bit mode
				lcd_init_setup_cmds();
				lcd_set_cursor(0, 0);
				lcd_write_string("Projeto LABSI");
     670:	8c e0       	ldi	r24, 0x0C	; 12
     672:	91 e0       	ldi	r25, 0x01	; 1
     674:	0e 94 a2 01 	call	0x344	; 0x344 <lcd_write_string(char const*)>
START_NB_DELAY_MS():
C:\Users\Utilizador\Desktop\RAFA\UNI\LABSI-LUMINOSIDADE\LABSI\PROG\PROGv1/PROGv1.ino:114
		}
	}
}
// --- ATRASO NON-BLOCKING (BASEADO EM 2MS) ---
void START_NB_DELAY_MS(uint16_t ms) {
	g_delay_counter_2ms = (ms / 2) + 1;
     678:	8f ee       	ldi	r24, 0xEF	; 239
     67a:	92 e0       	ldi	r25, 0x02	; 2
     67c:	90 93 71 01 	sts	0x0171, r25	; 0x800171 <g_delay_counter_2ms+0x1>
     680:	80 93 70 01 	sts	0x0170, r24	; 0x800170 <g_delay_counter_2ms>
inic_non_blocking():
C:\Users\Utilizador\Desktop\RAFA\UNI\LABSI-LUMINOSIDADE\LABSI\PROG\PROGv1/PROGv1.ino:598
				lcd_write_nibble(0x02, 0); // 4-bit mode
				lcd_init_setup_cmds();
				lcd_set_cursor(0, 0);
				lcd_write_string("Projeto LABSI");
				START_NB_DELAY_MS(1500);
				g_init_state = 5;
     684:	85 e0       	ldi	r24, 0x05	; 5
     686:	a2 cf       	rjmp	.-188    	; 0x5cc <main+0x116>
C:\Users\Utilizador\Desktop\RAFA\UNI\LABSI-LUMINOSIDADE\LABSI\PROG\PROGv1/PROGv1.ino:602
			}
			break;
		case 5:
			if(IS_DELAY_FINISHED() == 1) {
     688:	0e 94 d7 00 	call	0x1ae	; 0x1ae <IS_DELAY_FINISHED()>
     68c:	81 30       	cpi	r24, 0x01	; 1
     68e:	09 f0       	breq	.+2      	; 0x692 <main+0x1dc>
     690:	71 cf       	rjmp	.-286    	; 0x574 <main+0xbe>
lcd_clear():
C:\Users\Utilizador\Desktop\RAFA\UNI\LABSI-LUMINOSIDADE\LABSI\PROG\PROGv1/PROGv1.ino:329
void lcd_write_byte(uint8_t data, uint8_t rs) {
	lcd_write_nibble(data >> 4, rs); // High bits
	lcd_write_nibble(data & 0b00001111, rs); // Low bits
}
void lcd_clear(void) {
	lcd_write_byte(0b00000001, 0);
     692:	60 e0       	ldi	r22, 0x00	; 0
     694:	0e 94 93 01 	call	0x326	; 0x326 <lcd_write_byte(unsigned char, unsigned char)>
detect_sensors():
C:\Users\Utilizador\Desktop\RAFA\UNI\LABSI-LUMINOSIDADE\LABSI\PROG\PROGv1/PROGv1.ino:386
	i2c_stop();
	uint16_t data = (high_byte << 8) | low_byte;
	return (uint16_t)((float) data / 1.2);
}
void detect_sensors(void) {
	g_sensor1_present = bh1750_send(BH1750_ADDR1, BH1750_POWER_ON) && bh1750_send(BH1750_ADDR1, BH1750_CONT_HIGH_RES_MODE2);
     698:	61 e0       	ldi	r22, 0x01	; 1
     69a:	83 e2       	ldi	r24, 0x23	; 35
     69c:	0e 94 b4 00 	call	0x168	; 0x168 <bh1750_send(unsigned char, unsigned char)>
     6a0:	88 23       	and	r24, r24
     6a2:	39 f0       	breq	.+14     	; 0x6b2 <main+0x1fc>
     6a4:	61 e1       	ldi	r22, 0x11	; 17
     6a6:	83 e2       	ldi	r24, 0x23	; 35
     6a8:	0e 94 b4 00 	call	0x168	; 0x168 <bh1750_send(unsigned char, unsigned char)>
     6ac:	11 e0       	ldi	r17, 0x01	; 1
     6ae:	81 11       	cpse	r24, r1
     6b0:	01 c0       	rjmp	.+2      	; 0x6b4 <main+0x1fe>
main():
     6b2:	10 e0       	ldi	r17, 0x00	; 0
detect_sensors():
     6b4:	10 93 73 01 	sts	0x0173, r17	; 0x800173 <g_sensor1_present>
C:\Users\Utilizador\Desktop\RAFA\UNI\LABSI-LUMINOSIDADE\LABSI\PROG\PROGv1/PROGv1.ino:387
	g_sensor2_present = bh1750_send(BH1750_ADDR2, BH1750_POWER_ON) && bh1750_send(BH1750_ADDR2, BH1750_CONT_HIGH_RES_MODE2);
     6b8:	61 e0       	ldi	r22, 0x01	; 1
     6ba:	8c e5       	ldi	r24, 0x5C	; 92
     6bc:	0e 94 b4 00 	call	0x168	; 0x168 <bh1750_send(unsigned char, unsigned char)>
     6c0:	88 23       	and	r24, r24
     6c2:	39 f0       	breq	.+14     	; 0x6d2 <main+0x21c>
     6c4:	61 e1       	ldi	r22, 0x11	; 17
     6c6:	8c e5       	ldi	r24, 0x5C	; 92
     6c8:	0e 94 b4 00 	call	0x168	; 0x168 <bh1750_send(unsigned char, unsigned char)>
     6cc:	91 e0       	ldi	r25, 0x01	; 1
     6ce:	81 11       	cpse	r24, r1
     6d0:	01 c0       	rjmp	.+2      	; 0x6d4 <main+0x21e>
main():
     6d2:	90 e0       	ldi	r25, 0x00	; 0
detect_sensors():
     6d4:	90 93 72 01 	sts	0x0172, r25	; 0x800172 <g_sensor2_present>
C:\Users\Utilizador\Desktop\RAFA\UNI\LABSI-LUMINOSIDADE\LABSI\PROG\PROGv1/PROGv1.ino:388
	g_sensor_count = g_sensor1_present + g_sensor2_present;
     6d8:	19 0f       	add	r17, r25
     6da:	10 93 8e 01 	sts	0x018E, r17	; 0x80018e <g_sensor_count>
START_NB_DELAY_MS():
C:\Users\Utilizador\Desktop\RAFA\UNI\LABSI-LUMINOSIDADE\LABSI\PROG\PROGv1/PROGv1.ino:114
		}
	}
}
// --- ATRASO NON-BLOCKING (BASEADO EM 2MS) ---
void START_NB_DELAY_MS(uint16_t ms) {
	g_delay_counter_2ms = (ms / 2) + 1;
     6de:	86 e0       	ldi	r24, 0x06	; 6
     6e0:	90 e0       	ldi	r25, 0x00	; 0
     6e2:	90 93 71 01 	sts	0x0171, r25	; 0x800171 <g_delay_counter_2ms+0x1>
     6e6:	80 93 70 01 	sts	0x0170, r24	; 0x800170 <g_delay_counter_2ms>
     6ea:	70 cf       	rjmp	.-288    	; 0x5cc <main+0x116>
inic_non_blocking():
C:\Users\Utilizador\Desktop\RAFA\UNI\LABSI-LUMINOSIDADE\LABSI\PROG\PROGv1/PROGv1.ino:610
				START_NB_DELAY_MS(10);
				g_init_state = 6;
			}
			break;
		case 6:
			if(IS_DELAY_FINISHED() == 1) {
     6ec:	0e 94 d7 00 	call	0x1ae	; 0x1ae <IS_DELAY_FINISHED()>
     6f0:	81 30       	cpi	r24, 0x01	; 1
     6f2:	09 f0       	breq	.+2      	; 0x6f6 <main+0x240>
     6f4:	3f cf       	rjmp	.-386    	; 0x574 <main+0xbe>
lcd_set_cursor():
C:\Users\Utilizador\Desktop\RAFA\UNI\LABSI-LUMINOSIDADE\LABSI\PROG\PROGv1/PROGv1.ino:338
	if(row == 0) {
		addr = 0b10000000 + col;
	} else {
		addr = 0b11000000 + col;
	}
	lcd_write_byte(addr, 0);
     6f6:	60 e0       	ldi	r22, 0x00	; 0
     6f8:	80 e8       	ldi	r24, 0x80	; 128
     6fa:	0e 94 93 01 	call	0x326	; 0x326 <lcd_write_byte(unsigned char, unsigned char)>
inic_non_blocking():
C:\Users\Utilizador\Desktop\RAFA\UNI\LABSI-LUMINOSIDADE\LABSI\PROG\PROGv1/PROGv1.ino:612
			}
			break;
		case 6:
			if(IS_DELAY_FINISHED() == 1) {
				lcd_set_cursor(0, 0);
				if(g_sensor_count == 0) {
     6fe:	80 91 8e 01 	lds	r24, 0x018E	; 0x80018e <g_sensor_count>
     702:	81 11       	cpse	r24, r1
     704:	0c c0       	rjmp	.+24     	; 0x71e <main+0x268>
C:\Users\Utilizador\Desktop\RAFA\UNI\LABSI-LUMINOSIDADE\LABSI\PROG\PROGv1/PROGv1.ino:613
					lcd_write_string("Sem Sensores");
     706:	8a e1       	ldi	r24, 0x1A	; 26
     708:	91 e0       	ldi	r25, 0x01	; 1
C:\Users\Utilizador\Desktop\RAFA\UNI\LABSI-LUMINOSIDADE\LABSI\PROG\PROGv1/PROGv1.ino:619
				} else if(g_sensor_count == 1) {
					lcd_write_string("1 Sensor Pronto");
				} else {
					lcd_write_string("2 Sensores");
					lcd_set_cursor(1, 0);
					lcd_write_string("Prontos");
     70a:	0e 94 a2 01 	call	0x344	; 0x344 <lcd_write_string(char const*)>
START_NB_DELAY_MS():
C:\Users\Utilizador\Desktop\RAFA\UNI\LABSI-LUMINOSIDADE\LABSI\PROG\PROGv1/PROGv1.ino:114
		}
	}
}
// --- ATRASO NON-BLOCKING (BASEADO EM 2MS) ---
void START_NB_DELAY_MS(uint16_t ms) {
	g_delay_counter_2ms = (ms / 2) + 1;
     70e:	8f ee       	ldi	r24, 0xEF	; 239
     710:	92 e0       	ldi	r25, 0x02	; 2
     712:	90 93 71 01 	sts	0x0171, r25	; 0x800171 <g_delay_counter_2ms+0x1>
     716:	80 93 70 01 	sts	0x0170, r24	; 0x800170 <g_delay_counter_2ms>
inic_non_blocking():
C:\Users\Utilizador\Desktop\RAFA\UNI\LABSI-LUMINOSIDADE\LABSI\PROG\PROGv1/PROGv1.ino:622
					lcd_write_string("2 Sensores");
					lcd_set_cursor(1, 0);
					lcd_write_string("Prontos");
				}
				START_NB_DELAY_MS(1500);
				g_init_state = 7;
     71a:	87 e0       	ldi	r24, 0x07	; 7
     71c:	57 cf       	rjmp	.-338    	; 0x5cc <main+0x116>
C:\Users\Utilizador\Desktop\RAFA\UNI\LABSI-LUMINOSIDADE\LABSI\PROG\PROGv1/PROGv1.ino:614
		case 6:
			if(IS_DELAY_FINISHED() == 1) {
				lcd_set_cursor(0, 0);
				if(g_sensor_count == 0) {
					lcd_write_string("Sem Sensores");
				} else if(g_sensor_count == 1) {
     71e:	81 30       	cpi	r24, 0x01	; 1
     720:	19 f4       	brne	.+6      	; 0x728 <main+0x272>
C:\Users\Utilizador\Desktop\RAFA\UNI\LABSI-LUMINOSIDADE\LABSI\PROG\PROGv1/PROGv1.ino:615
					lcd_write_string("1 Sensor Pronto");
     722:	87 e2       	ldi	r24, 0x27	; 39
     724:	91 e0       	ldi	r25, 0x01	; 1
     726:	f1 cf       	rjmp	.-30     	; 0x70a <main+0x254>
C:\Users\Utilizador\Desktop\RAFA\UNI\LABSI-LUMINOSIDADE\LABSI\PROG\PROGv1/PROGv1.ino:617
				} else {
					lcd_write_string("2 Sensores");
     728:	87 e3       	ldi	r24, 0x37	; 55
     72a:	91 e0       	ldi	r25, 0x01	; 1
     72c:	0e 94 a2 01 	call	0x344	; 0x344 <lcd_write_string(char const*)>
lcd_set_cursor():
C:\Users\Utilizador\Desktop\RAFA\UNI\LABSI-LUMINOSIDADE\LABSI\PROG\PROGv1/PROGv1.ino:338
	if(row == 0) {
		addr = 0b10000000 + col;
	} else {
		addr = 0b11000000 + col;
	}
	lcd_write_byte(addr, 0);
     730:	60 e0       	ldi	r22, 0x00	; 0
     732:	80 ec       	ldi	r24, 0xC0	; 192
     734:	0e 94 93 01 	call	0x326	; 0x326 <lcd_write_byte(unsigned char, unsigned char)>
inic_non_blocking():
C:\Users\Utilizador\Desktop\RAFA\UNI\LABSI-LUMINOSIDADE\LABSI\PROG\PROGv1/PROGv1.ino:619
				} else if(g_sensor_count == 1) {
					lcd_write_string("1 Sensor Pronto");
				} else {
					lcd_write_string("2 Sensores");
					lcd_set_cursor(1, 0);
					lcd_write_string("Prontos");
     738:	82 e4       	ldi	r24, 0x42	; 66
     73a:	91 e0       	ldi	r25, 0x01	; 1
     73c:	e6 cf       	rjmp	.-52     	; 0x70a <main+0x254>
C:\Users\Utilizador\Desktop\RAFA\UNI\LABSI-LUMINOSIDADE\LABSI\PROG\PROGv1/PROGv1.ino:626
				START_NB_DELAY_MS(1500);
				g_init_state = 7;
			}
			break;
		case 7:
			if(IS_DELAY_FINISHED() == 1) {
     73e:	0e 94 d7 00 	call	0x1ae	; 0x1ae <IS_DELAY_FINISHED()>
     742:	18 2f       	mov	r17, r24
     744:	81 30       	cpi	r24, 0x01	; 1
     746:	09 f0       	breq	.+2      	; 0x74a <main+0x294>
     748:	15 cf       	rjmp	.-470    	; 0x574 <main+0xbe>
lcd_clear():
C:\Users\Utilizador\Desktop\RAFA\UNI\LABSI-LUMINOSIDADE\LABSI\PROG\PROGv1/PROGv1.ino:329
void lcd_write_byte(uint8_t data, uint8_t rs) {
	lcd_write_nibble(data >> 4, rs); // High bits
	lcd_write_nibble(data & 0b00001111, rs); // Low bits
}
void lcd_clear(void) {
	lcd_write_byte(0b00000001, 0);
     74a:	60 e0       	ldi	r22, 0x00	; 0
     74c:	81 e0       	ldi	r24, 0x01	; 1
     74e:	0e 94 93 01 	call	0x326	; 0x326 <lcd_write_byte(unsigned char, unsigned char)>
inic_non_blocking():
C:\Users\Utilizador\Desktop\RAFA\UNI\LABSI-LUMINOSIDADE\LABSI\PROG\PROGv1/PROGv1.ino:628
			}
			break;
		case 7:
			if(IS_DELAY_FINISHED() == 1) {
				lcd_clear();
				g_setup_done = 1;
     752:	10 93 9c 01 	sts	0x019C, r17	; 0x80019c <g_setup_done>
C:\Users\Utilizador\Desktop\RAFA\UNI\LABSI-LUMINOSIDADE\LABSI\PROG\PROGv1/PROGv1.ino:629
				g_init_state = 255;
     756:	8f ef       	ldi	r24, 0xFF	; 255
     758:	39 cf       	rjmp	.-398    	; 0x5cc <main+0x116>
main():
C:\Users\Utilizador\Desktop\RAFA\UNI\LABSI-LUMINOSIDADE\LABSI\PROG\PROGv1/PROGv1.ino:644
		// 1. GESTÃO DA INICIALIZAÇÃO (NON-BLOCKING)
		if(!g_setup_done) {
			inic_non_blocking();
		} else {
			// 2. CÓDIGO OPERACIONAL PRINCIPAL (SÓ EXECUTA APÓS SETUP)
			if(g_flag_2ms) {
     75a:	80 91 9b 01 	lds	r24, 0x019B	; 0x80019b <g_flag_2ms>
     75e:	88 23       	and	r24, r24
     760:	09 f4       	brne	.+2      	; 0x764 <main+0x2ae>
     762:	08 cf       	rjmp	.-496    	; 0x574 <main+0xbe>
C:\Users\Utilizador\Desktop\RAFA\UNI\LABSI-LUMINOSIDADE\LABSI\PROG\PROGv1/PROGv1.ino:645
				g_flag_2ms = 0;
     764:	10 92 9b 01 	sts	0x019B, r1	; 0x80019b <g_flag_2ms>
bh1750_read_sensors():
C:\Users\Utilizador\Desktop\RAFA\UNI\LABSI-LUMINOSIDADE\LABSI\PROG\PROGv1/PROGv1.ino:392
	g_sensor2_present = bh1750_send(BH1750_ADDR2, BH1750_POWER_ON) && bh1750_send(BH1750_ADDR2, BH1750_CONT_HIGH_RES_MODE2);
	g_sensor_count = g_sensor1_present + g_sensor2_present;
}
uint16_t bh1750_read_sensors(void) {
	uint16_t lux1 = 0, lux2 = 0;
	if(g_sensor1_present) lux1 = bh1750_read(BH1750_ADDR1);
     768:	80 91 73 01 	lds	r24, 0x0173	; 0x800173 <g_sensor1_present>
main():
C:\Users\Utilizador\Desktop\RAFA\UNI\LABSI-LUMINOSIDADE\LABSI\PROG\PROGv1/PROGv1.ino:391
	g_sensor1_present = bh1750_send(BH1750_ADDR1, BH1750_POWER_ON) && bh1750_send(BH1750_ADDR1, BH1750_CONT_HIGH_RES_MODE2);
	g_sensor2_present = bh1750_send(BH1750_ADDR2, BH1750_POWER_ON) && bh1750_send(BH1750_ADDR2, BH1750_CONT_HIGH_RES_MODE2);
	g_sensor_count = g_sensor1_present + g_sensor2_present;
}
uint16_t bh1750_read_sensors(void) {
	uint16_t lux1 = 0, lux2 = 0;
     76c:	10 e0       	ldi	r17, 0x00	; 0
     76e:	00 e0       	ldi	r16, 0x00	; 0
bh1750_read_sensors():
C:\Users\Utilizador\Desktop\RAFA\UNI\LABSI-LUMINOSIDADE\LABSI\PROG\PROGv1/PROGv1.ino:392
	if(g_sensor1_present) lux1 = bh1750_read(BH1750_ADDR1);
     770:	88 23       	and	r24, r24
     772:	21 f0       	breq	.+8      	; 0x77c <main+0x2c6>
     774:	83 e2       	ldi	r24, 0x23	; 35
     776:	0e 94 6d 00 	call	0xda	; 0xda <bh1750_read(unsigned char)>
     77a:	8c 01       	movw	r16, r24
C:\Users\Utilizador\Desktop\RAFA\UNI\LABSI-LUMINOSIDADE\LABSI\PROG\PROGv1/PROGv1.ino:393
	if(g_sensor2_present) lux2 = bh1750_read(BH1750_ADDR2);
     77c:	80 91 72 01 	lds	r24, 0x0172	; 0x800172 <g_sensor2_present>
     780:	88 23       	and	r24, r24
     782:	09 f4       	brne	.+2      	; 0x786 <main+0x2d0>
     784:	e2 c0       	rjmp	.+452    	; 0x94a <__stack+0x4b>
     786:	8c e5       	ldi	r24, 0x5C	; 92
     788:	0e 94 6d 00 	call	0xda	; 0xda <bh1750_read(unsigned char)>
C:\Users\Utilizador\Desktop\RAFA\UNI\LABSI-LUMINOSIDADE\LABSI\PROG\PROGv1/PROGv1.ino:394
	if(g_sensor_count == 1) {
     78c:	30 91 8e 01 	lds	r19, 0x018E	; 0x80018e <g_sensor_count>
     790:	39 a3       	std	Y+33, r19	; 0x21
     792:	31 30       	cpi	r19, 0x01	; 1
     794:	09 f0       	breq	.+2      	; 0x798 <main+0x2e2>
     796:	dc c0       	rjmp	.+440    	; 0x950 <__stack+0x51>
C:\Users\Utilizador\Desktop\RAFA\UNI\LABSI-LUMINOSIDADE\LABSI\PROG\PROGv1/PROGv1.ino:395
		if(lux1 > 0) return lux1;
     798:	01 15       	cp	r16, r1
     79a:	11 05       	cpc	r17, r1
     79c:	09 f0       	breq	.+2      	; 0x7a0 <main+0x2ea>
     79e:	c8 01       	movw	r24, r16
average_lux():
C:\Users\Utilizador\Desktop\RAFA\UNI\LABSI-LUMINOSIDADE\LABSI\PROG\PROGv1/PROGv1.ino:403
	if(g_sensor_count == 2) return (uint16_t)((float)(lux1 + lux2)) / 2;
	return 0;
}
// --- Averaging Function ---
uint16_t average_lux(uint16_t new_reading) {
	lux_buffer[g_buffer_index] = new_reading;
     7a0:	20 91 88 01 	lds	r18, 0x0188	; 0x800188 <g_buffer_index>
     7a4:	30 e0       	ldi	r19, 0x00	; 0
     7a6:	f9 01       	movw	r30, r18
     7a8:	ee 0f       	add	r30, r30
     7aa:	ff 1f       	adc	r31, r31
     7ac:	ec 58       	subi	r30, 0x8C	; 140
     7ae:	fe 4f       	sbci	r31, 0xFE	; 254
     7b0:	91 83       	std	Z+1, r25	; 0x01
     7b2:	80 83       	st	Z, r24
C:\Users\Utilizador\Desktop\RAFA\UNI\LABSI-LUMINOSIDADE\LABSI\PROG\PROGv1/PROGv1.ino:404
	g_buffer_index = (g_buffer_index + 1) % AVG_SAMPLES;
     7b4:	c9 01       	movw	r24, r18
     7b6:	01 96       	adiw	r24, 0x01	; 1
     7b8:	b6 01       	movw	r22, r12
     7ba:	0e 94 c8 06 	call	0xd90	; 0xd90 <__divmodhi4>
     7be:	80 93 88 01 	sts	0x0188, r24	; 0x800188 <g_buffer_index>
     7c2:	e4 e7       	ldi	r30, 0x74	; 116
     7c4:	f1 e0       	ldi	r31, 0x01	; 1
main():
C:\Users\Utilizador\Desktop\RAFA\UNI\LABSI-LUMINOSIDADE\LABSI\PROG\PROGv1/PROGv1.ino:405
	uint32_t sum = 0;
     7c6:	60 e0       	ldi	r22, 0x00	; 0
     7c8:	70 e0       	ldi	r23, 0x00	; 0
     7ca:	cb 01       	movw	r24, r22
average_lux():
C:\Users\Utilizador\Desktop\RAFA\UNI\LABSI-LUMINOSIDADE\LABSI\PROG\PROGv1/PROGv1.ino:407
	for(uint8_t i = 0; i < AVG_SAMPLES; i++) {
		sum += lux_buffer[i];
     7cc:	21 91       	ld	r18, Z+
     7ce:	31 91       	ld	r19, Z+
     7d0:	62 0f       	add	r22, r18
     7d2:	73 1f       	adc	r23, r19
     7d4:	81 1d       	adc	r24, r1
     7d6:	91 1d       	adc	r25, r1
C:\Users\Utilizador\Desktop\RAFA\UNI\LABSI-LUMINOSIDADE\LABSI\PROG\PROGv1/PROGv1.ino:406
// --- Averaging Function ---
uint16_t average_lux(uint16_t new_reading) {
	lux_buffer[g_buffer_index] = new_reading;
	g_buffer_index = (g_buffer_index + 1) % AVG_SAMPLES;
	uint32_t sum = 0;
	for(uint8_t i = 0; i < AVG_SAMPLES; i++) {
     7d8:	28 e8       	ldi	r18, 0x88	; 136
     7da:	31 e0       	ldi	r19, 0x01	; 1
     7dc:	2e 17       	cp	r18, r30
     7de:	3f 07       	cpc	r19, r31
     7e0:	a9 f7       	brne	.-22     	; 0x7cc <main+0x316>
C:\Users\Utilizador\Desktop\RAFA\UNI\LABSI-LUMINOSIDADE\LABSI\PROG\PROGv1/PROGv1.ino:409
		sum += lux_buffer[i];
	}
	return sum / AVG_SAMPLES;
     7e2:	a2 01       	movw	r20, r4
     7e4:	91 01       	movw	r18, r2
     7e6:	0e 94 dc 06 	call	0xdb8	; 0xdb8 <__udivmodsi4>
     7ea:	30 93 9a 01 	sts	0x019A, r19	; 0x80019a <g_averaged_lux+0x1>
     7ee:	20 93 99 01 	sts	0x0199, r18	; 0x800199 <g_averaged_lux>
main():
C:\Users\Utilizador\Desktop\RAFA\UNI\LABSI-LUMINOSIDADE\LABSI\PROG\PROGv1/PROGv1.ino:651
				// 1. LEITURA DE LUX e MÉDIA
				g_lux_value = bh1750_read_sensors();
				g_averaged_lux = average_lux(g_lux_value);
				// 2. Controlo dependendo do modo
				static uint8_t sonar_tick = 0;
				if(g_operating_mode == MODE_AUTOMATIC) {
     7f2:	80 91 98 01 	lds	r24, 0x0198	; 0x800198 <g_operating_mode>
     7f6:	81 11       	cpse	r24, r1
     7f8:	30 c1       	rjmp	.+608    	; 0xa5a <__stack+0x15b>
adjust_setpoint_control():
C:\Users\Utilizador\Desktop\RAFA\UNI\LABSI-LUMINOSIDADE\LABSI\PROG\PROGv1/PROGv1.ino:183
}
// --- LÓGICA DE CONTROLO DE SETPOINT (+/-) ---
void adjust_setpoint_control(void) {
	const uint8_t DEBOUNCE_DELAY = 10; // 20ms
	// 1. Botão UP (Aumentar)
	if((PIND & (1 << BOTAO_MAIS))) {
     7fa:	4c 9b       	sbis	0x09, 4	; 9
     7fc:	df c0       	rjmp	.+446    	; 0x9bc <__stack+0xbd>
C:\Users\Utilizador\Desktop\RAFA\UNI\LABSI-LUMINOSIDADE\LABSI\PROG\PROGv1/PROGv1.ino:184
		if(g_up_debounce == 0) {
     7fe:	80 91 8c 01 	lds	r24, 0x018C	; 0x80018c <g_up_debounce>
     802:	81 11       	cpse	r24, r1
     804:	b0 c0       	rjmp	.+352    	; 0x966 <__stack+0x67>
C:\Users\Utilizador\Desktop\RAFA\UNI\LABSI-LUMINOSIDADE\LABSI\PROG\PROGv1/PROGv1.ino:185
			g_up_debounce = DEBOUNCE_DELAY;
     806:	8a e0       	ldi	r24, 0x0A	; 10
     808:	80 93 8c 01 	sts	0x018C, r24	; 0x80018c <g_up_debounce>
C:\Users\Utilizador\Desktop\RAFA\UNI\LABSI-LUMINOSIDADE\LABSI\PROG\PROGv1/PROGv1.ino:202
		}
	} else {
		g_up_debounce = 0;
	}
	// 2. Botão DOWN (Diminuir)
	if((PIND & (1 << BOTAO_MENOS))) {
     80c:	4f 9b       	sbis	0x09, 7	; 9
     80e:	fa c0       	rjmp	.+500    	; 0xa04 <__stack+0x105>
C:\Users\Utilizador\Desktop\RAFA\UNI\LABSI-LUMINOSIDADE\LABSI\PROG\PROGv1/PROGv1.ino:203
		if(g_down_debounce == 0) {
     810:	80 91 8b 01 	lds	r24, 0x018B	; 0x80018b <g_down_debounce>
     814:	81 11       	cpse	r24, r1
     816:	d5 c0       	rjmp	.+426    	; 0x9c2 <__stack+0xc3>
C:\Users\Utilizador\Desktop\RAFA\UNI\LABSI-LUMINOSIDADE\LABSI\PROG\PROGv1/PROGv1.ino:204
			g_down_debounce = DEBOUNCE_DELAY;
     818:	8a e0       	ldi	r24, 0x0A	; 10
     81a:	80 93 8b 01 	sts	0x018B, r24	; 0x80018b <g_down_debounce>
C:\Users\Utilizador\Desktop\RAFA\UNI\LABSI-LUMINOSIDADE\LABSI\PROG\PROGv1/PROGv1.ino:221
		}
	} else {
		g_down_debounce = 0;
	}
	// 3. Lógica de Debounce (Decrementa)
	if(g_up_debounce > 0) g_up_debounce--;
     81e:	80 91 8c 01 	lds	r24, 0x018C	; 0x80018c <g_up_debounce>
     822:	88 23       	and	r24, r24
     824:	19 f0       	breq	.+6      	; 0x82c <main+0x376>
     826:	81 50       	subi	r24, 0x01	; 1
     828:	80 93 8c 01 	sts	0x018C, r24	; 0x80018c <g_up_debounce>
C:\Users\Utilizador\Desktop\RAFA\UNI\LABSI-LUMINOSIDADE\LABSI\PROG\PROGv1/PROGv1.ino:222
	if(g_down_debounce > 0) g_down_debounce--;
     82c:	80 91 8b 01 	lds	r24, 0x018B	; 0x80018b <g_down_debounce>
     830:	88 23       	and	r24, r24
     832:	09 f4       	brne	.+2      	; 0x836 <main+0x380>
     834:	ea c0       	rjmp	.+468    	; 0xa0a <__stack+0x10b>
     836:	81 50       	subi	r24, 0x01	; 1
     838:	80 93 8b 01 	sts	0x018B, r24	; 0x80018b <g_down_debounce>
C:\Users\Utilizador\Desktop\RAFA\UNI\LABSI-LUMINOSIDADE\LABSI\PROG\PROGv1/PROGv1.ino:230
		if(g_fix_state == 1) {
			g_fix_timer = FIX_TIME_TICKS;
			g_fix_state = 2; // Transição para Contagem
		}
	}
	if(g_fix_state == 2) {
     83c:	80 91 94 01 	lds	r24, 0x0194	; 0x800194 <g_fix_state>
     840:	82 30       	cpi	r24, 0x02	; 2
     842:	81 f4       	brne	.+32     	; 0x864 <main+0x3ae>
C:\Users\Utilizador\Desktop\RAFA\UNI\LABSI-LUMINOSIDADE\LABSI\PROG\PROGv1/PROGv1.ino:232
		// CONTAGEM (2s)
		if(g_fix_timer == 0) {
     844:	80 91 89 01 	lds	r24, 0x0189	; 0x800189 <g_fix_timer>
     848:	90 91 8a 01 	lds	r25, 0x018A	; 0x80018a <g_fix_timer+0x1>
     84c:	89 2b       	or	r24, r25
     84e:	51 f4       	brne	.+20     	; 0x864 <main+0x3ae>
C:\Users\Utilizador\Desktop\RAFA\UNI\LABSI-LUMINOSIDADE\LABSI\PROG\PROGv1/PROGv1.ino:233
			g_target_lux = g_last_setpoint_value; // Fixa o valor
     850:	80 91 01 01 	lds	r24, 0x0101	; 0x800101 <g_last_setpoint_value>
     854:	90 91 02 01 	lds	r25, 0x0102	; 0x800102 <g_last_setpoint_value+0x1>
     858:	90 93 04 01 	sts	0x0104, r25	; 0x800104 <g_target_lux+0x1>
     85c:	80 93 03 01 	sts	0x0103, r24	; 0x800103 <g_target_lux>
C:\Users\Utilizador\Desktop\RAFA\UNI\LABSI-LUMINOSIDADE\LABSI\PROG\PROGv1/PROGv1.ino:235
			//buzzer_bips(2); // 2 bips para sinalizar bloqueio
			g_fix_state = 0; // Volta a Estável
     860:	10 92 94 01 	sts	0x0194, r1	; 0x800194 <g_fix_state>
servo_control_automatic():
C:\Users\Utilizador\Desktop\RAFA\UNI\LABSI-LUMINOSIDADE\LABSI\PROG\PROGv1/PROGv1.ino:240
		}
	}
}
void servo_control_automatic(void) {
	int16_t error = (int16_t) g_target_lux - (int16_t) g_averaged_lux;
     864:	80 91 03 01 	lds	r24, 0x0103	; 0x800103 <g_target_lux>
     868:	90 91 04 01 	lds	r25, 0x0104	; 0x800104 <g_target_lux+0x1>
C:\Users\Utilizador\Desktop\RAFA\UNI\LABSI-LUMINOSIDADE\LABSI\PROG\PROGv1/PROGv1.ino:242
	// Se o sistema ainda está a inicializar o BH1750, não atuar
	if(g_sensor_count == 0 || g_init_state != 255) return;
     86c:	69 a1       	ldd	r22, Y+33	; 0x21
     86e:	66 23       	and	r22, r22
     870:	b1 f0       	breq	.+44     	; 0x89e <main+0x3e8>
     872:	60 91 8d 01 	lds	r22, 0x018D	; 0x80018d <g_init_state>
     876:	6f 3f       	cpi	r22, 0xFF	; 255
     878:	91 f4       	brne	.+36     	; 0x89e <main+0x3e8>
C:\Users\Utilizador\Desktop\RAFA\UNI\LABSI-LUMINOSIDADE\LABSI\PROG\PROGv1/PROGv1.ino:240
			g_fix_state = 0; // Volta a Estável
		}
	}
}
void servo_control_automatic(void) {
	int16_t error = (int16_t) g_target_lux - (int16_t) g_averaged_lux;
     87a:	82 1b       	sub	r24, r18
     87c:	93 0b       	sbc	r25, r19
C:\Users\Utilizador\Desktop\RAFA\UNI\LABSI-LUMINOSIDADE\LABSI\PROG\PROGv1/PROGv1.ino:243
	// Se o sistema ainda está a inicializar o BH1750, não atuar
	if(g_sensor_count == 0 || g_init_state != 255) return;
	if(abs(error) <= LUX_BAND_ERROR) {
     87e:	9c 01       	movw	r18, r24
     880:	22 5e       	subi	r18, 0xE2	; 226
     882:	3f 4f       	sbci	r19, 0xFF	; 255
     884:	2d 33       	cpi	r18, 0x3D	; 61
     886:	31 05       	cpc	r19, r1
     888:	08 f0       	brcs	.+2      	; 0x88c <main+0x3d6>
     88a:	ce c0       	rjmp	.+412    	; 0xa28 <__stack+0x129>
control_motor():
C:\Users\Utilizador\Desktop\RAFA\UNI\LABSI-LUMINOSIDADE\LABSI\PROG\PROGv1/PROGv1.ino:454
			valor_pwm = 125;
			g_estado_atual = FECHAR;
			break;
		case PARAR:
			valor_pwm = 188;
			g_estado_atual = PARAR;
     88c:	81 e0       	ldi	r24, 0x01	; 1
     88e:	80 93 96 01 	sts	0x0196, r24	; 0x800196 <g_estado_atual>
C:\Users\Utilizador\Desktop\RAFA\UNI\LABSI-LUMINOSIDADE\LABSI\PROG\PROGv1/PROGv1.ino:461
		case ABRIR:
			valor_pwm = 250;
			g_estado_atual = ABRIR;
			break;
	}
	OCR1A = valor_pwm;
     892:	8c eb       	ldi	r24, 0xBC	; 188
     894:	90 e0       	ldi	r25, 0x00	; 0
     896:	90 93 89 00 	sts	0x0089, r25	; 0x800089 <__DATA_REGION_ORIGIN__+0x29>
     89a:	80 93 88 00 	sts	0x0088, r24	; 0x800088 <__DATA_REGION_ORIGIN__+0x28>
main():
C:\Users\Utilizador\Desktop\RAFA\UNI\LABSI-LUMINOSIDADE\LABSI\PROG\PROGv1/PROGv1.ino:664
							update_manual_gestures();
						}
				}
				// Estado do motor para debug em LCD
				char motor_status = 'E';
				switch(g_estado_atual) {
     89e:	e0 91 96 01 	lds	r30, 0x0196	; 0x800196 <g_estado_atual>
     8a2:	15 e4       	ldi	r17, 0x45	; 69
     8a4:	e3 30       	cpi	r30, 0x03	; 3
     8a6:	20 f4       	brcc	.+8      	; 0x8b0 <main+0x3fa>
     8a8:	f0 e0       	ldi	r31, 0x00	; 0
     8aa:	eb 5f       	subi	r30, 0xFB	; 251
     8ac:	fe 4f       	sbci	r31, 0xFE	; 254
     8ae:	10 81       	ld	r17, Z
C:\Users\Utilizador\Desktop\RAFA\UNI\LABSI-LUMINOSIDADE\LABSI\PROG\PROGv1/PROGv1.ino:676
					case FECHAR:
						motor_status = 'F';
						break;
				}
				// 3. ATUALIZAÇÃO DO DISPLAY (200ms)
				if(g_display_counter >= 100) {
     8b0:	80 91 95 01 	lds	r24, 0x0195	; 0x800195 <g_display_counter>
     8b4:	84 36       	cpi	r24, 0x64	; 100
     8b6:	08 f4       	brcc	.+2      	; 0x8ba <main+0x404>
     8b8:	5d ce       	rjmp	.-838    	; 0x574 <main+0xbe>
C:\Users\Utilizador\Desktop\RAFA\UNI\LABSI-LUMINOSIDADE\LABSI\PROG\PROGv1/PROGv1.ino:677
					g_display_counter = 0;
     8ba:	10 92 95 01 	sts	0x0195, r1	; 0x800195 <g_display_counter>
C:\Users\Utilizador\Desktop\RAFA\UNI\LABSI-LUMINOSIDADE\LABSI\PROG\PROGv1/PROGv1.ino:679
					// Define valor de display (Preview vs Fixo)
					uint16_t display_setpoint = g_target_lux;
     8be:	20 91 03 01 	lds	r18, 0x0103	; 0x800103 <g_target_lux>
     8c2:	30 91 04 01 	lds	r19, 0x0104	; 0x800104 <g_target_lux+0x1>
C:\Users\Utilizador\Desktop\RAFA\UNI\LABSI-LUMINOSIDADE\LABSI\PROG\PROGv1/PROGv1.ino:680
					if(g_fix_state != 0) {
     8c6:	80 91 94 01 	lds	r24, 0x0194	; 0x800194 <g_fix_state>
     8ca:	88 23       	and	r24, r24
     8cc:	21 f0       	breq	.+8      	; 0x8d6 <main+0x420>
C:\Users\Utilizador\Desktop\RAFA\UNI\LABSI-LUMINOSIDADE\LABSI\PROG\PROGv1/PROGv1.ino:681
						display_setpoint = g_last_setpoint_value;
     8ce:	20 91 01 01 	lds	r18, 0x0101	; 0x800101 <g_last_setpoint_value>
     8d2:	30 91 02 01 	lds	r19, 0x0102	; 0x800102 <g_last_setpoint_value+0x1>
C:\Users\Utilizador\Desktop\RAFA\UNI\LABSI-LUMINOSIDADE\LABSI\PROG\PROGv1/PROGv1.ino:684
					}
					sprintf(buffer, "MODO:%s SET:%4u",
						(g_operating_mode == MODE_AUTOMATIC) ? "A" : "M", display_setpoint);
     8d6:	80 91 98 01 	lds	r24, 0x0198	; 0x800198 <g_operating_mode>
C:\Users\Utilizador\Desktop\RAFA\UNI\LABSI-LUMINOSIDADE\LABSI\PROG\PROGv1/PROGv1.ino:683
					// Define valor de display (Preview vs Fixo)
					uint16_t display_setpoint = g_target_lux;
					if(g_fix_state != 0) {
						display_setpoint = g_last_setpoint_value;
					}
					sprintf(buffer, "MODO:%s SET:%4u",
     8da:	81 11       	cpse	r24, r1
     8dc:	19 c1       	rjmp	.+562    	; 0xb10 <__stack+0x211>
     8de:	88 e0       	ldi	r24, 0x08	; 8
     8e0:	91 e0       	ldi	r25, 0x01	; 1
     8e2:	3f 93       	push	r19
     8e4:	2f 93       	push	r18
     8e6:	9f 93       	push	r25
     8e8:	8f 93       	push	r24
     8ea:	2a e4       	ldi	r18, 0x4A	; 74
     8ec:	31 e0       	ldi	r19, 0x01	; 1
     8ee:	3f 93       	push	r19
     8f0:	2f 93       	push	r18
     8f2:	ff 92       	push	r15
     8f4:	ef 92       	push	r14
     8f6:	0e 94 18 07 	call	0xe30	; 0xe30 <sprintf>
lcd_set_cursor():
C:\Users\Utilizador\Desktop\RAFA\UNI\LABSI-LUMINOSIDADE\LABSI\PROG\PROGv1/PROGv1.ino:338
	if(row == 0) {
		addr = 0b10000000 + col;
	} else {
		addr = 0b11000000 + col;
	}
	lcd_write_byte(addr, 0);
     8fa:	60 e0       	ldi	r22, 0x00	; 0
     8fc:	80 e8       	ldi	r24, 0x80	; 128
     8fe:	0e 94 93 01 	call	0x326	; 0x326 <lcd_write_byte(unsigned char, unsigned char)>
main():
C:\Users\Utilizador\Desktop\RAFA\UNI\LABSI-LUMINOSIDADE\LABSI\PROG\PROGv1/PROGv1.ino:686
						display_setpoint = g_last_setpoint_value;
					}
					sprintf(buffer, "MODO:%s SET:%4u",
						(g_operating_mode == MODE_AUTOMATIC) ? "A" : "M", display_setpoint);
					lcd_set_cursor(0, 0);
					lcd_write_string(buffer);
     902:	c7 01       	movw	r24, r14
     904:	0e 94 a2 01 	call	0x344	; 0x344 <lcd_write_string(char const*)>
C:\Users\Utilizador\Desktop\RAFA\UNI\LABSI-LUMINOSIDADE\LABSI\PROG\PROGv1/PROGv1.ino:687
					sprintf(buffer, "Lux:%4u Motor:%c", g_averaged_lux, motor_status);
     908:	81 2f       	mov	r24, r17
     90a:	01 2e       	mov	r0, r17
     90c:	00 0c       	add	r0, r0
     90e:	99 0b       	sbc	r25, r25
     910:	9f 93       	push	r25
     912:	1f 93       	push	r17
     914:	80 91 9a 01 	lds	r24, 0x019A	; 0x80019a <g_averaged_lux+0x1>
     918:	8f 93       	push	r24
     91a:	80 91 99 01 	lds	r24, 0x0199	; 0x800199 <g_averaged_lux>
     91e:	8f 93       	push	r24
     920:	8a e5       	ldi	r24, 0x5A	; 90
     922:	91 e0       	ldi	r25, 0x01	; 1
     924:	9f 93       	push	r25
     926:	8f 93       	push	r24
     928:	ff 92       	push	r15
     92a:	ef 92       	push	r14
     92c:	0e 94 18 07 	call	0xe30	; 0xe30 <sprintf>
lcd_set_cursor():
C:\Users\Utilizador\Desktop\RAFA\UNI\LABSI-LUMINOSIDADE\LABSI\PROG\PROGv1/PROGv1.ino:338
	if(row == 0) {
		addr = 0b10000000 + col;
	} else {
		addr = 0b11000000 + col;
	}
	lcd_write_byte(addr, 0);
     930:	60 e0       	ldi	r22, 0x00	; 0
     932:	80 ec       	ldi	r24, 0xC0	; 192
     934:	0e 94 93 01 	call	0x326	; 0x326 <lcd_write_byte(unsigned char, unsigned char)>
main():
C:\Users\Utilizador\Desktop\RAFA\UNI\LABSI-LUMINOSIDADE\LABSI\PROG\PROGv1/PROGv1.ino:689
						(g_operating_mode == MODE_AUTOMATIC) ? "A" : "M", display_setpoint);
					lcd_set_cursor(0, 0);
					lcd_write_string(buffer);
					sprintf(buffer, "Lux:%4u Motor:%c", g_averaged_lux, motor_status);
					lcd_set_cursor(1, 0);
					lcd_write_string(buffer);
     938:	c7 01       	movw	r24, r14
     93a:	0e 94 a2 01 	call	0x344	; 0x344 <lcd_write_string(char const*)>
     93e:	0f b6       	in	r0, 0x3f	; 63
     940:	f8 94       	cli
     942:	de bf       	out	0x3e, r29	; 62
     944:	0f be       	out	0x3f, r0	; 63
     946:	cd bf       	out	0x3d, r28	; 61
     948:	15 ce       	rjmp	.-982    	; 0x574 <main+0xbe>
C:\Users\Utilizador\Desktop\RAFA\UNI\LABSI-LUMINOSIDADE\LABSI\PROG\PROGv1/PROGv1.ino:391
	g_sensor1_present = bh1750_send(BH1750_ADDR1, BH1750_POWER_ON) && bh1750_send(BH1750_ADDR1, BH1750_CONT_HIGH_RES_MODE2);
	g_sensor2_present = bh1750_send(BH1750_ADDR2, BH1750_POWER_ON) && bh1750_send(BH1750_ADDR2, BH1750_CONT_HIGH_RES_MODE2);
	g_sensor_count = g_sensor1_present + g_sensor2_present;
}
uint16_t bh1750_read_sensors(void) {
	uint16_t lux1 = 0, lux2 = 0;
     94a:	90 e0       	ldi	r25, 0x00	; 0
     94c:	80 e0       	ldi	r24, 0x00	; 0
     94e:	1e cf       	rjmp	.-452    	; 0x78c <main+0x2d6>
bh1750_read_sensors():
C:\Users\Utilizador\Desktop\RAFA\UNI\LABSI-LUMINOSIDADE\LABSI\PROG\PROGv1/PROGv1.ino:398
	if(g_sensor2_present) lux2 = bh1750_read(BH1750_ADDR2);
	if(g_sensor_count == 1) {
		if(lux1 > 0) return lux1;
		else return lux2;
	}
	if(g_sensor_count == 2) return (uint16_t)((float)(lux1 + lux2)) / 2;
     950:	69 a1       	ldd	r22, Y+33	; 0x21
     952:	62 30       	cpi	r22, 0x02	; 2
     954:	29 f4       	brne	.+10     	; 0x960 <__stack+0x61>
     956:	80 0f       	add	r24, r16
     958:	91 1f       	adc	r25, r17
     95a:	96 95       	lsr	r25
     95c:	87 95       	ror	r24
     95e:	20 cf       	rjmp	.-448    	; 0x7a0 <main+0x2ea>
main():
C:\Users\Utilizador\Desktop\RAFA\UNI\LABSI-LUMINOSIDADE\LABSI\PROG\PROGv1/PROGv1.ino:399
	return 0;
     960:	90 e0       	ldi	r25, 0x00	; 0
     962:	80 e0       	ldi	r24, 0x00	; 0
     964:	1d cf       	rjmp	.-454    	; 0x7a0 <main+0x2ea>
adjust_setpoint_control():
C:\Users\Utilizador\Desktop\RAFA\UNI\LABSI-LUMINOSIDADE\LABSI\PROG\PROGv1/PROGv1.ino:186
	const uint8_t DEBOUNCE_DELAY = 10; // 20ms
	// 1. Botão UP (Aumentar)
	if((PIND & (1 << BOTAO_MAIS))) {
		if(g_up_debounce == 0) {
			g_up_debounce = DEBOUNCE_DELAY;
		} else if(g_up_debounce == 1) {
     966:	81 30       	cpi	r24, 0x01	; 1
     968:	09 f0       	breq	.+2      	; 0x96c <__stack+0x6d>
     96a:	50 cf       	rjmp	.-352    	; 0x80c <main+0x356>
C:\Users\Utilizador\Desktop\RAFA\UNI\LABSI-LUMINOSIDADE\LABSI\PROG\PROGv1/PROGv1.ino:187
			if(g_fix_state != 2) {
     96c:	80 91 94 01 	lds	r24, 0x0194	; 0x800194 <g_fix_state>
     970:	82 30       	cpi	r24, 0x02	; 2
     972:	21 f1       	breq	.+72     	; 0x9bc <__stack+0xbd>
C:\Users\Utilizador\Desktop\RAFA\UNI\LABSI-LUMINOSIDADE\LABSI\PROG\PROGv1/PROGv1.ino:188
				if(g_last_setpoint_value < LUX_MAX) {
     974:	80 91 01 01 	lds	r24, 0x0101	; 0x800101 <g_last_setpoint_value>
     978:	90 91 02 01 	lds	r25, 0x0102	; 0x800102 <g_last_setpoint_value+0x1>
     97c:	88 3e       	cpi	r24, 0xE8	; 232
     97e:	93 40       	sbci	r25, 0x03	; 3
     980:	b0 f4       	brcc	.+44     	; 0x9ae <__stack+0xaf>
C:\Users\Utilizador\Desktop\RAFA\UNI\LABSI-LUMINOSIDADE\LABSI\PROG\PROGv1/PROGv1.ino:189
					g_last_setpoint_value += LUX_STEP;
     982:	80 91 01 01 	lds	r24, 0x0101	; 0x800101 <g_last_setpoint_value>
     986:	90 91 02 01 	lds	r25, 0x0102	; 0x800102 <g_last_setpoint_value+0x1>
     98a:	c2 96       	adiw	r24, 0x32	; 50
     98c:	90 93 02 01 	sts	0x0102, r25	; 0x800102 <g_last_setpoint_value+0x1>
     990:	80 93 01 01 	sts	0x0101, r24	; 0x800101 <g_last_setpoint_value>
C:\Users\Utilizador\Desktop\RAFA\UNI\LABSI-LUMINOSIDADE\LABSI\PROG\PROGv1/PROGv1.ino:190
					if(g_last_setpoint_value > LUX_MAX) g_last_setpoint_value = LUX_MAX;
     994:	80 91 01 01 	lds	r24, 0x0101	; 0x800101 <g_last_setpoint_value>
     998:	90 91 02 01 	lds	r25, 0x0102	; 0x800102 <g_last_setpoint_value+0x1>
     99c:	89 3e       	cpi	r24, 0xE9	; 233
     99e:	93 40       	sbci	r25, 0x03	; 3
     9a0:	30 f0       	brcs	.+12     	; 0x9ae <__stack+0xaf>
     9a2:	88 ee       	ldi	r24, 0xE8	; 232
     9a4:	93 e0       	ldi	r25, 0x03	; 3
     9a6:	90 93 02 01 	sts	0x0102, r25	; 0x800102 <g_last_setpoint_value+0x1>
     9aa:	80 93 01 01 	sts	0x0101, r24	; 0x800101 <g_last_setpoint_value>
C:\Users\Utilizador\Desktop\RAFA\UNI\LABSI-LUMINOSIDADE\LABSI\PROG\PROGv1/PROGv1.ino:192
				}
				if(g_fix_state == 0) {
     9ae:	80 91 94 01 	lds	r24, 0x0194	; 0x800194 <g_fix_state>
     9b2:	81 11       	cpse	r24, r1
     9b4:	03 c0       	rjmp	.+6      	; 0x9bc <__stack+0xbd>
C:\Users\Utilizador\Desktop\RAFA\UNI\LABSI-LUMINOSIDADE\LABSI\PROG\PROGv1/PROGv1.ino:193
					g_fix_state = 1;
     9b6:	81 e0       	ldi	r24, 0x01	; 1
     9b8:	80 93 94 01 	sts	0x0194, r24	; 0x800194 <g_fix_state>
C:\Users\Utilizador\Desktop\RAFA\UNI\LABSI-LUMINOSIDADE\LABSI\PROG\PROGv1/PROGv1.ino:196
				}
			}
			g_up_debounce = 0;
     9bc:	10 92 8c 01 	sts	0x018C, r1	; 0x80018c <g_up_debounce>
     9c0:	25 cf       	rjmp	.-438    	; 0x80c <main+0x356>
C:\Users\Utilizador\Desktop\RAFA\UNI\LABSI-LUMINOSIDADE\LABSI\PROG\PROGv1/PROGv1.ino:205
	}
	// 2. Botão DOWN (Diminuir)
	if((PIND & (1 << BOTAO_MENOS))) {
		if(g_down_debounce == 0) {
			g_down_debounce = DEBOUNCE_DELAY;
		} else if(g_down_debounce == 1) {
     9c2:	81 30       	cpi	r24, 0x01	; 1
     9c4:	09 f0       	breq	.+2      	; 0x9c8 <__stack+0xc9>
     9c6:	2b cf       	rjmp	.-426    	; 0x81e <main+0x368>
C:\Users\Utilizador\Desktop\RAFA\UNI\LABSI-LUMINOSIDADE\LABSI\PROG\PROGv1/PROGv1.ino:206
			if(g_fix_state != 2) {
     9c8:	80 91 94 01 	lds	r24, 0x0194	; 0x800194 <g_fix_state>
     9cc:	82 30       	cpi	r24, 0x02	; 2
     9ce:	d1 f0       	breq	.+52     	; 0xa04 <__stack+0x105>
C:\Users\Utilizador\Desktop\RAFA\UNI\LABSI-LUMINOSIDADE\LABSI\PROG\PROGv1/PROGv1.ino:207
				if(g_last_setpoint_value > LUX_MIN) {
     9d0:	80 91 01 01 	lds	r24, 0x0101	; 0x800101 <g_last_setpoint_value>
     9d4:	90 91 02 01 	lds	r25, 0x0102	; 0x800102 <g_last_setpoint_value+0x1>
     9d8:	89 2b       	or	r24, r25
     9da:	69 f0       	breq	.+26     	; 0x9f6 <__stack+0xf7>
C:\Users\Utilizador\Desktop\RAFA\UNI\LABSI-LUMINOSIDADE\LABSI\PROG\PROGv1/PROGv1.ino:208
					g_last_setpoint_value -= LUX_STEP;
     9dc:	80 91 01 01 	lds	r24, 0x0101	; 0x800101 <g_last_setpoint_value>
     9e0:	90 91 02 01 	lds	r25, 0x0102	; 0x800102 <g_last_setpoint_value+0x1>
     9e4:	c2 97       	sbiw	r24, 0x32	; 50
     9e6:	90 93 02 01 	sts	0x0102, r25	; 0x800102 <g_last_setpoint_value+0x1>
     9ea:	80 93 01 01 	sts	0x0101, r24	; 0x800101 <g_last_setpoint_value>
C:\Users\Utilizador\Desktop\RAFA\UNI\LABSI-LUMINOSIDADE\LABSI\PROG\PROGv1/PROGv1.ino:209
					if(g_last_setpoint_value < LUX_MIN) g_last_setpoint_value = LUX_MIN;
     9ee:	80 91 01 01 	lds	r24, 0x0101	; 0x800101 <g_last_setpoint_value>
     9f2:	90 91 02 01 	lds	r25, 0x0102	; 0x800102 <g_last_setpoint_value+0x1>
C:\Users\Utilizador\Desktop\RAFA\UNI\LABSI-LUMINOSIDADE\LABSI\PROG\PROGv1/PROGv1.ino:211
				}
				if(g_fix_state == 0) {
     9f6:	80 91 94 01 	lds	r24, 0x0194	; 0x800194 <g_fix_state>
     9fa:	81 11       	cpse	r24, r1
     9fc:	03 c0       	rjmp	.+6      	; 0xa04 <__stack+0x105>
C:\Users\Utilizador\Desktop\RAFA\UNI\LABSI-LUMINOSIDADE\LABSI\PROG\PROGv1/PROGv1.ino:212
					g_fix_state = 1;
     9fe:	81 e0       	ldi	r24, 0x01	; 1
     a00:	80 93 94 01 	sts	0x0194, r24	; 0x800194 <g_fix_state>
C:\Users\Utilizador\Desktop\RAFA\UNI\LABSI-LUMINOSIDADE\LABSI\PROG\PROGv1/PROGv1.ino:215
				}
			}
			g_down_debounce = 0;
     a04:	10 92 8b 01 	sts	0x018B, r1	; 0x80018b <g_down_debounce>
     a08:	0a cf       	rjmp	.-492    	; 0x81e <main+0x368>
C:\Users\Utilizador\Desktop\RAFA\UNI\LABSI-LUMINOSIDADE\LABSI\PROG\PROGv1/PROGv1.ino:225
	// 3. Lógica de Debounce (Decrementa)
	if(g_up_debounce > 0) g_up_debounce--;
	if(g_down_debounce > 0) g_down_debounce--;
	// 4. MÁQUINA DE ESTADOS DE FIXAÇÃO (Contagem de 2 Segundos)
	else {
		if(g_fix_state == 1) {
     a0a:	80 91 94 01 	lds	r24, 0x0194	; 0x800194 <g_fix_state>
     a0e:	81 30       	cpi	r24, 0x01	; 1
     a10:	09 f0       	breq	.+2      	; 0xa14 <__stack+0x115>
     a12:	14 cf       	rjmp	.-472    	; 0x83c <main+0x386>
C:\Users\Utilizador\Desktop\RAFA\UNI\LABSI-LUMINOSIDADE\LABSI\PROG\PROGv1/PROGv1.ino:226
			g_fix_timer = FIX_TIME_TICKS;
     a14:	84 e1       	ldi	r24, 0x14	; 20
     a16:	90 e0       	ldi	r25, 0x00	; 0
     a18:	90 93 8a 01 	sts	0x018A, r25	; 0x80018a <g_fix_timer+0x1>
     a1c:	80 93 89 01 	sts	0x0189, r24	; 0x800189 <g_fix_timer>
C:\Users\Utilizador\Desktop\RAFA\UNI\LABSI-LUMINOSIDADE\LABSI\PROG\PROGv1/PROGv1.ino:227
			g_fix_state = 2; // Transição para Contagem
     a20:	82 e0       	ldi	r24, 0x02	; 2
     a22:	80 93 94 01 	sts	0x0194, r24	; 0x800194 <g_fix_state>
     a26:	0a cf       	rjmp	.-492    	; 0x83c <main+0x386>
     a28:	20 91 96 01 	lds	r18, 0x0196	; 0x800196 <g_estado_atual>
servo_control_automatic():
C:\Users\Utilizador\Desktop\RAFA\UNI\LABSI-LUMINOSIDADE\LABSI\PROG\PROGv1/PROGv1.ino:246
	// Se o sistema ainda está a inicializar o BH1750, não atuar
	if(g_sensor_count == 0 || g_init_state != 255) return;
	if(abs(error) <= LUX_BAND_ERROR) {
		control_motor(PARAR);
		return;
	} else if(error > LUX_BAND_ERROR) {
     a2c:	4f 97       	sbiw	r24, 0x1f	; 31
     a2e:	5c f0       	brlt	.+22     	; 0xa46 <__stack+0x147>
C:\Users\Utilizador\Desktop\RAFA\UNI\LABSI-LUMINOSIDADE\LABSI\PROG\PROGv1/PROGv1.ino:248
		// Erro positivo -> abrir
		if(g_estado_atual < ABRIR) {
     a30:	22 30       	cpi	r18, 0x02	; 2
     a32:	08 f0       	brcs	.+2      	; 0xa36 <__stack+0x137>
     a34:	34 cf       	rjmp	.-408    	; 0x89e <main+0x3e8>
control_motor():
C:\Users\Utilizador\Desktop\RAFA\UNI\LABSI-LUMINOSIDADE\LABSI\PROG\PROGv1/PROGv1.ino:458
			valor_pwm = 188;
			g_estado_atual = PARAR;
			break;
		case ABRIR:
			valor_pwm = 250;
			g_estado_atual = ABRIR;
     a36:	82 e0       	ldi	r24, 0x02	; 2
     a38:	80 93 96 01 	sts	0x0196, r24	; 0x800196 <g_estado_atual>
C:\Users\Utilizador\Desktop\RAFA\UNI\LABSI-LUMINOSIDADE\LABSI\PROG\PROGv1/PROGv1.ino:461
			break;
	}
	OCR1A = valor_pwm;
     a3c:	90 92 89 00 	sts	0x0089, r9	; 0x800089 <__DATA_REGION_ORIGIN__+0x29>
     a40:	80 92 88 00 	sts	0x0088, r8	; 0x800088 <__DATA_REGION_ORIGIN__+0x28>
     a44:	2c cf       	rjmp	.-424    	; 0x89e <main+0x3e8>
servo_control_automatic():
C:\Users\Utilizador\Desktop\RAFA\UNI\LABSI-LUMINOSIDADE\LABSI\PROG\PROGv1/PROGv1.ino:253
		if(g_estado_atual < ABRIR) {
			control_motor(ABRIR);
		}
	} else {
		// Erro negativo -> fechar
		if(g_estado_atual > FECHAR) {
     a46:	22 23       	and	r18, r18
     a48:	09 f4       	brne	.+2      	; 0xa4c <__stack+0x14d>
     a4a:	65 c0       	rjmp	.+202    	; 0xb16 <__stack+0x217>
control_motor():
C:\Users\Utilizador\Desktop\RAFA\UNI\LABSI-LUMINOSIDADE\LABSI\PROG\PROGv1/PROGv1.ino:450
void control_motor(Servo_pos pos_desejada) {
	uint16_t valor_pwm;
	switch(pos_desejada) {
		case FECHAR:
			valor_pwm = 125;
			g_estado_atual = FECHAR;
     a4c:	10 92 96 01 	sts	0x0196, r1	; 0x800196 <g_estado_atual>
C:\Users\Utilizador\Desktop\RAFA\UNI\LABSI-LUMINOSIDADE\LABSI\PROG\PROGv1/PROGv1.ino:461
		case ABRIR:
			valor_pwm = 250;
			g_estado_atual = ABRIR;
			break;
	}
	OCR1A = valor_pwm;
     a50:	b0 92 89 00 	sts	0x0089, r11	; 0x800089 <__DATA_REGION_ORIGIN__+0x29>
     a54:	a0 92 88 00 	sts	0x0088, r10	; 0x800088 <__DATA_REGION_ORIGIN__+0x28>
     a58:	22 cf       	rjmp	.-444    	; 0x89e <main+0x3e8>
main():
C:\Users\Utilizador\Desktop\RAFA\UNI\LABSI-LUMINOSIDADE\LABSI\PROG\PROGv1/PROGv1.ino:656
				if(g_operating_mode == MODE_AUTOMATIC) {
					adjust_setpoint_control();
					servo_control_automatic();
				} else {
					// MODO MANUAL: reconhecimento de gestos com sonares
					sonar_tick++;
     a5a:	80 91 97 01 	lds	r24, 0x0197	; 0x800197 <main::sonar_tick>
     a5e:	8f 5f       	subi	r24, 0xFF	; 255
C:\Users\Utilizador\Desktop\RAFA\UNI\LABSI-LUMINOSIDADE\LABSI\PROG\PROGv1/PROGv1.ino:657
						if(sonar_tick >= 25) { // ~50 ms
     a60:	89 31       	cpi	r24, 0x19	; 25
     a62:	18 f4       	brcc	.+6      	; 0xa6a <__stack+0x16b>
C:\Users\Utilizador\Desktop\RAFA\UNI\LABSI-LUMINOSIDADE\LABSI\PROG\PROGv1/PROGv1.ino:656
				if(g_operating_mode == MODE_AUTOMATIC) {
					adjust_setpoint_control();
					servo_control_automatic();
				} else {
					// MODO MANUAL: reconhecimento de gestos com sonares
					sonar_tick++;
     a64:	80 93 97 01 	sts	0x0197, r24	; 0x800197 <main::sonar_tick>
     a68:	1a cf       	rjmp	.-460    	; 0x89e <main+0x3e8>
C:\Users\Utilizador\Desktop\RAFA\UNI\LABSI-LUMINOSIDADE\LABSI\PROG\PROGv1/PROGv1.ino:658
						if(sonar_tick >= 25) { // ~50 ms
							sonar_tick = 0;
     a6a:	10 92 97 01 	sts	0x0197, r1	; 0x800197 <main::sonar_tick>
update_manual_gestures():
C:\Users\Utilizador\Desktop\RAFA\UNI\LABSI-LUMINOSIDADE\LABSI\PROG\PROGv1/PROGv1.ino:518
// S1 (baixo) -> S2 (cima)   => ABRIR
// S2 (cima)  -> S1 (baixo)  => FECHAR
void update_manual_gestures(void) {
	static uint8_t s1_prev = 0;
	static uint8_t s2_prev = 0;
	uint8_t s1 = sonar_is_close(1);
     a6e:	81 e0       	ldi	r24, 0x01	; 1
     a70:	0e 94 fc 00 	call	0x1f8	; 0x1f8 <sonar_is_close(unsigned char)>
     a74:	18 2f       	mov	r17, r24
C:\Users\Utilizador\Desktop\RAFA\UNI\LABSI-LUMINOSIDADE\LABSI\PROG\PROGv1/PROGv1.ino:519
	uint8_t s2 = sonar_is_close(2);
     a76:	82 e0       	ldi	r24, 0x02	; 2
     a78:	0e 94 fc 00 	call	0x1f8	; 0x1f8 <sonar_is_close(unsigned char)>
C:\Users\Utilizador\Desktop\RAFA\UNI\LABSI-LUMINOSIDADE\LABSI\PROG\PROGv1/PROGv1.ino:521
	// Reset do gesto se o tempo expirar
	if(g_gesture_timer == 0 && g_gesture_state != 0) {
     a7c:	20 91 92 01 	lds	r18, 0x0192	; 0x800192 <g_gesture_timer>
     a80:	30 91 93 01 	lds	r19, 0x0193	; 0x800193 <g_gesture_timer+0x1>
     a84:	23 2b       	or	r18, r19
     a86:	29 f4       	brne	.+10     	; 0xa92 <__stack+0x193>
     a88:	90 91 91 01 	lds	r25, 0x0191	; 0x800191 <g_gesture_state>
     a8c:	91 11       	cpse	r25, r1
C:\Users\Utilizador\Desktop\RAFA\UNI\LABSI-LUMINOSIDADE\LABSI\PROG\PROGv1/PROGv1.ino:522
		g_gesture_state = 0;
     a8e:	10 92 91 01 	sts	0x0191, r1	; 0x800191 <g_gesture_state>
C:\Users\Utilizador\Desktop\RAFA\UNI\LABSI-LUMINOSIDADE\LABSI\PROG\PROGv1/PROGv1.ino:526
	}
	// Estados:
	// 0: idle, 1: S1 primeiro, 2: S2 primeiro
	if(g_gesture_state == 0) {
     a92:	90 91 91 01 	lds	r25, 0x0191	; 0x800191 <g_gesture_state>
     a96:	91 11       	cpse	r25, r1
     a98:	1a c0       	rjmp	.+52     	; 0xace <__stack+0x1cf>
C:\Users\Utilizador\Desktop\RAFA\UNI\LABSI-LUMINOSIDADE\LABSI\PROG\PROGv1/PROGv1.ino:528
		// Procura primeira ativação
		if(s1 && !s1_prev) {
     a9a:	11 23       	and	r17, r17
     a9c:	81 f0       	breq	.+32     	; 0xabe <__stack+0x1bf>
     a9e:	90 91 90 01 	lds	r25, 0x0190	; 0x800190 <update_manual_gestures()::s1_prev>
     aa2:	91 11       	cpse	r25, r1
     aa4:	0c c0       	rjmp	.+24     	; 0xabe <__stack+0x1bf>
C:\Users\Utilizador\Desktop\RAFA\UNI\LABSI-LUMINOSIDADE\LABSI\PROG\PROGv1/PROGv1.ino:529
			g_gesture_state = 1; // S1 primeiro (de baixo para cima)
     aa6:	91 e0       	ldi	r25, 0x01	; 1
C:\Users\Utilizador\Desktop\RAFA\UNI\LABSI-LUMINOSIDADE\LABSI\PROG\PROGv1/PROGv1.ino:532
			g_gesture_timer = GESTURE_TIMEOUT_TICKS;
		} else if(s2 && !s2_prev) {
			g_gesture_state = 2; // S2 primeiro (de cima para baixo)
     aa8:	90 93 91 01 	sts	0x0191, r25	; 0x800191 <g_gesture_state>
C:\Users\Utilizador\Desktop\RAFA\UNI\LABSI-LUMINOSIDADE\LABSI\PROG\PROGv1/PROGv1.ino:533
			g_gesture_timer = GESTURE_TIMEOUT_TICKS;
     aac:	70 92 93 01 	sts	0x0193, r7	; 0x800193 <g_gesture_timer+0x1>
     ab0:	60 92 92 01 	sts	0x0192, r6	; 0x800192 <g_gesture_timer>
C:\Users\Utilizador\Desktop\RAFA\UNI\LABSI-LUMINOSIDADE\LABSI\PROG\PROGv1/PROGv1.ino:552
			control_motor(FECHAR);
			g_gesture_state = 0;
			g_gesture_timer = 0;
		}
	}
	s1_prev = s1;
     ab4:	10 93 90 01 	sts	0x0190, r17	; 0x800190 <update_manual_gestures()::s1_prev>
C:\Users\Utilizador\Desktop\RAFA\UNI\LABSI-LUMINOSIDADE\LABSI\PROG\PROGv1/PROGv1.ino:553
	s2_prev = s2;
     ab8:	80 93 8f 01 	sts	0x018F, r24	; 0x80018f <update_manual_gestures()::s2_prev>
     abc:	f0 ce       	rjmp	.-544    	; 0x89e <main+0x3e8>
C:\Users\Utilizador\Desktop\RAFA\UNI\LABSI-LUMINOSIDADE\LABSI\PROG\PROGv1/PROGv1.ino:531
	if(g_gesture_state == 0) {
		// Procura primeira ativação
		if(s1 && !s1_prev) {
			g_gesture_state = 1; // S1 primeiro (de baixo para cima)
			g_gesture_timer = GESTURE_TIMEOUT_TICKS;
		} else if(s2 && !s2_prev) {
     abe:	88 23       	and	r24, r24
     ac0:	c9 f3       	breq	.-14     	; 0xab4 <__stack+0x1b5>
     ac2:	90 91 8f 01 	lds	r25, 0x018F	; 0x80018f <update_manual_gestures()::s2_prev>
     ac6:	91 11       	cpse	r25, r1
     ac8:	f5 cf       	rjmp	.-22     	; 0xab4 <__stack+0x1b5>
C:\Users\Utilizador\Desktop\RAFA\UNI\LABSI-LUMINOSIDADE\LABSI\PROG\PROGv1/PROGv1.ino:532
			g_gesture_state = 2; // S2 primeiro (de cima para baixo)
     aca:	92 e0       	ldi	r25, 0x02	; 2
     acc:	ed cf       	rjmp	.-38     	; 0xaa8 <__stack+0x1a9>
C:\Users\Utilizador\Desktop\RAFA\UNI\LABSI-LUMINOSIDADE\LABSI\PROG\PROGv1/PROGv1.ino:535
			g_gesture_timer = GESTURE_TIMEOUT_TICKS;
		}
	} else if(g_gesture_state == 1) {
     ace:	90 91 91 01 	lds	r25, 0x0191	; 0x800191 <g_gesture_state>
     ad2:	91 30       	cpi	r25, 0x01	; 1
     ad4:	81 f4       	brne	.+32     	; 0xaf6 <__stack+0x1f7>
C:\Users\Utilizador\Desktop\RAFA\UNI\LABSI-LUMINOSIDADE\LABSI\PROG\PROGv1/PROGv1.ino:537
		// Já detetou S1, agora espera S2
		if(s2) {
     ad6:	88 23       	and	r24, r24
     ad8:	69 f3       	breq	.-38     	; 0xab4 <__stack+0x1b5>
control_motor():
C:\Users\Utilizador\Desktop\RAFA\UNI\LABSI-LUMINOSIDADE\LABSI\PROG\PROGv1/PROGv1.ino:458
			valor_pwm = 188;
			g_estado_atual = PARAR;
			break;
		case ABRIR:
			valor_pwm = 250;
			g_estado_atual = ABRIR;
     ada:	92 e0       	ldi	r25, 0x02	; 2
     adc:	90 93 96 01 	sts	0x0196, r25	; 0x800196 <g_estado_atual>
C:\Users\Utilizador\Desktop\RAFA\UNI\LABSI-LUMINOSIDADE\LABSI\PROG\PROGv1/PROGv1.ino:461
			break;
	}
	OCR1A = valor_pwm;
     ae0:	90 92 89 00 	sts	0x0089, r9	; 0x800089 <__DATA_REGION_ORIGIN__+0x29>
     ae4:	80 92 88 00 	sts	0x0088, r8	; 0x800088 <__DATA_REGION_ORIGIN__+0x28>
update_manual_gestures():
C:\Users\Utilizador\Desktop\RAFA\UNI\LABSI-LUMINOSIDADE\LABSI\PROG\PROGv1/PROGv1.ino:548
	} else if(g_gesture_state == 2) {
		// Já detetou S2, agora espera S1
		if(s1) {
			// Gesto de CIMA para BAIXO -> FECHAR
			control_motor(FECHAR);
			g_gesture_state = 0;
     ae8:	10 92 91 01 	sts	0x0191, r1	; 0x800191 <g_gesture_state>
C:\Users\Utilizador\Desktop\RAFA\UNI\LABSI-LUMINOSIDADE\LABSI\PROG\PROGv1/PROGv1.ino:549
			g_gesture_timer = 0;
     aec:	10 92 93 01 	sts	0x0193, r1	; 0x800193 <g_gesture_timer+0x1>
     af0:	10 92 92 01 	sts	0x0192, r1	; 0x800192 <g_gesture_timer>
     af4:	df cf       	rjmp	.-66     	; 0xab4 <__stack+0x1b5>
C:\Users\Utilizador\Desktop\RAFA\UNI\LABSI-LUMINOSIDADE\LABSI\PROG\PROGv1/PROGv1.ino:543
			// Gesto de BAIXO para CIMA -> ABRIR
			control_motor(ABRIR);
			g_gesture_state = 0;
			g_gesture_timer = 0;
		}
	} else if(g_gesture_state == 2) {
     af6:	90 91 91 01 	lds	r25, 0x0191	; 0x800191 <g_gesture_state>
     afa:	92 30       	cpi	r25, 0x02	; 2
     afc:	d9 f6       	brne	.-74     	; 0xab4 <__stack+0x1b5>
C:\Users\Utilizador\Desktop\RAFA\UNI\LABSI-LUMINOSIDADE\LABSI\PROG\PROGv1/PROGv1.ino:545
		// Já detetou S2, agora espera S1
		if(s1) {
     afe:	11 23       	and	r17, r17
     b00:	c9 f2       	breq	.-78     	; 0xab4 <__stack+0x1b5>
control_motor():
C:\Users\Utilizador\Desktop\RAFA\UNI\LABSI-LUMINOSIDADE\LABSI\PROG\PROGv1/PROGv1.ino:450
void control_motor(Servo_pos pos_desejada) {
	uint16_t valor_pwm;
	switch(pos_desejada) {
		case FECHAR:
			valor_pwm = 125;
			g_estado_atual = FECHAR;
     b02:	10 92 96 01 	sts	0x0196, r1	; 0x800196 <g_estado_atual>
C:\Users\Utilizador\Desktop\RAFA\UNI\LABSI-LUMINOSIDADE\LABSI\PROG\PROGv1/PROGv1.ino:461
		case ABRIR:
			valor_pwm = 250;
			g_estado_atual = ABRIR;
			break;
	}
	OCR1A = valor_pwm;
     b06:	b0 92 89 00 	sts	0x0089, r11	; 0x800089 <__DATA_REGION_ORIGIN__+0x29>
     b0a:	a0 92 88 00 	sts	0x0088, r10	; 0x800088 <__DATA_REGION_ORIGIN__+0x28>
     b0e:	ec cf       	rjmp	.-40     	; 0xae8 <__stack+0x1e9>
main():
C:\Users\Utilizador\Desktop\RAFA\UNI\LABSI-LUMINOSIDADE\LABSI\PROG\PROGv1/PROGv1.ino:683
					// Define valor de display (Preview vs Fixo)
					uint16_t display_setpoint = g_target_lux;
					if(g_fix_state != 0) {
						display_setpoint = g_last_setpoint_value;
					}
					sprintf(buffer, "MODO:%s SET:%4u",
     b10:	8a e0       	ldi	r24, 0x0A	; 10
     b12:	91 e0       	ldi	r25, 0x01	; 1
     b14:	e6 ce       	rjmp	.-564    	; 0x8e2 <main+0x42c>
C:\Users\Utilizador\Desktop\RAFA\UNI\LABSI-LUMINOSIDADE\LABSI\PROG\PROGv1/PROGv1.ino:664
							update_manual_gestures();
						}
				}
				// Estado do motor para debug em LCD
				char motor_status = 'E';
				switch(g_estado_atual) {
     b16:	e0 e0       	ldi	r30, 0x00	; 0
     b18:	c7 ce       	rjmp	.-626    	; 0x8a8 <main+0x3f2>

00000b1a <__divsf3>:
__divsf3():
     b1a:	0e 94 a1 05 	call	0xb42	; 0xb42 <__divsf3x>
     b1e:	0c 94 82 06 	jmp	0xd04	; 0xd04 <__fp_round>
     b22:	0e 94 7b 06 	call	0xcf6	; 0xcf6 <__fp_pscB>
     b26:	58 f0       	brcs	.+22     	; 0xb3e <__divsf3+0x24>
     b28:	0e 94 74 06 	call	0xce8	; 0xce8 <__fp_pscA>
     b2c:	40 f0       	brcs	.+16     	; 0xb3e <__divsf3+0x24>
     b2e:	29 f4       	brne	.+10     	; 0xb3a <__divsf3+0x20>
     b30:	5f 3f       	cpi	r21, 0xFF	; 255
     b32:	29 f0       	breq	.+10     	; 0xb3e <__divsf3+0x24>
     b34:	0c 94 6b 06 	jmp	0xcd6	; 0xcd6 <__fp_inf>
     b38:	51 11       	cpse	r21, r1
     b3a:	0c 94 b6 06 	jmp	0xd6c	; 0xd6c <__fp_szero>
     b3e:	0c 94 71 06 	jmp	0xce2	; 0xce2 <__fp_nan>

00000b42 <__divsf3x>:
__divsf3x():
     b42:	0e 94 93 06 	call	0xd26	; 0xd26 <__fp_split3>
     b46:	68 f3       	brcs	.-38     	; 0xb22 <__divsf3+0x8>

00000b48 <__divsf3_pse>:
     b48:	99 23       	and	r25, r25
     b4a:	b1 f3       	breq	.-20     	; 0xb38 <__divsf3+0x1e>
     b4c:	55 23       	and	r21, r21
     b4e:	91 f3       	breq	.-28     	; 0xb34 <__divsf3+0x1a>
     b50:	95 1b       	sub	r25, r21
     b52:	55 0b       	sbc	r21, r21
     b54:	bb 27       	eor	r27, r27
     b56:	aa 27       	eor	r26, r26
     b58:	62 17       	cp	r22, r18
     b5a:	73 07       	cpc	r23, r19
     b5c:	84 07       	cpc	r24, r20
     b5e:	38 f0       	brcs	.+14     	; 0xb6e <__divsf3_pse+0x26>
     b60:	9f 5f       	subi	r25, 0xFF	; 255
     b62:	5f 4f       	sbci	r21, 0xFF	; 255
     b64:	22 0f       	add	r18, r18
     b66:	33 1f       	adc	r19, r19
     b68:	44 1f       	adc	r20, r20
     b6a:	aa 1f       	adc	r26, r26
     b6c:	a9 f3       	breq	.-22     	; 0xb58 <__divsf3_pse+0x10>
     b6e:	35 d0       	rcall	.+106    	; 0xbda <__divsf3_pse+0x92>
     b70:	0e 2e       	mov	r0, r30
     b72:	3a f0       	brmi	.+14     	; 0xb82 <__divsf3_pse+0x3a>
     b74:	e0 e8       	ldi	r30, 0x80	; 128
     b76:	32 d0       	rcall	.+100    	; 0xbdc <__divsf3_pse+0x94>
     b78:	91 50       	subi	r25, 0x01	; 1
     b7a:	50 40       	sbci	r21, 0x00	; 0
     b7c:	e6 95       	lsr	r30
     b7e:	00 1c       	adc	r0, r0
     b80:	ca f7       	brpl	.-14     	; 0xb74 <__divsf3_pse+0x2c>
     b82:	2b d0       	rcall	.+86     	; 0xbda <__divsf3_pse+0x92>
     b84:	fe 2f       	mov	r31, r30
     b86:	29 d0       	rcall	.+82     	; 0xbda <__divsf3_pse+0x92>
     b88:	66 0f       	add	r22, r22
     b8a:	77 1f       	adc	r23, r23
     b8c:	88 1f       	adc	r24, r24
     b8e:	bb 1f       	adc	r27, r27
     b90:	26 17       	cp	r18, r22
     b92:	37 07       	cpc	r19, r23
     b94:	48 07       	cpc	r20, r24
     b96:	ab 07       	cpc	r26, r27
     b98:	b0 e8       	ldi	r27, 0x80	; 128
     b9a:	09 f0       	breq	.+2      	; 0xb9e <__divsf3_pse+0x56>
     b9c:	bb 0b       	sbc	r27, r27
     b9e:	80 2d       	mov	r24, r0
     ba0:	bf 01       	movw	r22, r30
     ba2:	ff 27       	eor	r31, r31
     ba4:	93 58       	subi	r25, 0x83	; 131
     ba6:	5f 4f       	sbci	r21, 0xFF	; 255
     ba8:	3a f0       	brmi	.+14     	; 0xbb8 <__divsf3_pse+0x70>
     baa:	9e 3f       	cpi	r25, 0xFE	; 254
     bac:	51 05       	cpc	r21, r1
     bae:	78 f0       	brcs	.+30     	; 0xbce <__divsf3_pse+0x86>
     bb0:	0c 94 6b 06 	jmp	0xcd6	; 0xcd6 <__fp_inf>
     bb4:	0c 94 b6 06 	jmp	0xd6c	; 0xd6c <__fp_szero>
     bb8:	5f 3f       	cpi	r21, 0xFF	; 255
     bba:	e4 f3       	brlt	.-8      	; 0xbb4 <__divsf3_pse+0x6c>
     bbc:	98 3e       	cpi	r25, 0xE8	; 232
     bbe:	d4 f3       	brlt	.-12     	; 0xbb4 <__divsf3_pse+0x6c>
     bc0:	86 95       	lsr	r24
     bc2:	77 95       	ror	r23
     bc4:	67 95       	ror	r22
     bc6:	b7 95       	ror	r27
     bc8:	f7 95       	ror	r31
     bca:	9f 5f       	subi	r25, 0xFF	; 255
     bcc:	c9 f7       	brne	.-14     	; 0xbc0 <__divsf3_pse+0x78>
     bce:	88 0f       	add	r24, r24
     bd0:	91 1d       	adc	r25, r1
     bd2:	96 95       	lsr	r25
     bd4:	87 95       	ror	r24
     bd6:	97 f9       	bld	r25, 7
     bd8:	08 95       	ret
     bda:	e1 e0       	ldi	r30, 0x01	; 1
     bdc:	66 0f       	add	r22, r22
     bde:	77 1f       	adc	r23, r23
     be0:	88 1f       	adc	r24, r24
     be2:	bb 1f       	adc	r27, r27
     be4:	62 17       	cp	r22, r18
     be6:	73 07       	cpc	r23, r19
     be8:	84 07       	cpc	r24, r20
     bea:	ba 07       	cpc	r27, r26
     bec:	20 f0       	brcs	.+8      	; 0xbf6 <__divsf3_pse+0xae>
     bee:	62 1b       	sub	r22, r18
     bf0:	73 0b       	sbc	r23, r19
     bf2:	84 0b       	sbc	r24, r20
     bf4:	ba 0b       	sbc	r27, r26
     bf6:	ee 1f       	adc	r30, r30
     bf8:	88 f7       	brcc	.-30     	; 0xbdc <__divsf3_pse+0x94>
     bfa:	e0 95       	com	r30
     bfc:	08 95       	ret

00000bfe <__fixunssfsi>:
     bfe:	0e 94 9b 06 	call	0xd36	; 0xd36 <__fp_splitA>
     c02:	88 f0       	brcs	.+34     	; 0xc26 <__fixunssfsi+0x28>
     c04:	9f 57       	subi	r25, 0x7F	; 127
     c06:	98 f0       	brcs	.+38     	; 0xc2e <__fixunssfsi+0x30>
     c08:	b9 2f       	mov	r27, r25
     c0a:	99 27       	eor	r25, r25
     c0c:	b7 51       	subi	r27, 0x17	; 23
     c0e:	b0 f0       	brcs	.+44     	; 0xc3c <__fixunssfsi+0x3e>
     c10:	e1 f0       	breq	.+56     	; 0xc4a <__fixunssfsi+0x4c>
     c12:	66 0f       	add	r22, r22
     c14:	77 1f       	adc	r23, r23
     c16:	88 1f       	adc	r24, r24
     c18:	99 1f       	adc	r25, r25
     c1a:	1a f0       	brmi	.+6      	; 0xc22 <__fixunssfsi+0x24>
     c1c:	ba 95       	dec	r27
__fixunssfsi():
     c1e:	c9 f7       	brne	.-14     	; 0xc12 <__fixunssfsi+0x14>
     c20:	14 c0       	rjmp	.+40     	; 0xc4a <__fixunssfsi+0x4c>
     c22:	b1 30       	cpi	r27, 0x01	; 1
     c24:	91 f0       	breq	.+36     	; 0xc4a <__fixunssfsi+0x4c>
     c26:	0e 94 b5 06 	call	0xd6a	; 0xd6a <__fp_zero>
     c2a:	b1 e0       	ldi	r27, 0x01	; 1
     c2c:	08 95       	ret
     c2e:	0c 94 b5 06 	jmp	0xd6a	; 0xd6a <__fp_zero>
     c32:	67 2f       	mov	r22, r23
     c34:	78 2f       	mov	r23, r24
     c36:	88 27       	eor	r24, r24
     c38:	b8 5f       	subi	r27, 0xF8	; 248
     c3a:	39 f0       	breq	.+14     	; 0xc4a <__fixunssfsi+0x4c>
     c3c:	b9 3f       	cpi	r27, 0xF9	; 249
     c3e:	cc f3       	brlt	.-14     	; 0xc32 <__fixunssfsi+0x34>
     c40:	86 95       	lsr	r24
     c42:	77 95       	ror	r23
     c44:	67 95       	ror	r22
     c46:	b3 95       	inc	r27
     c48:	d9 f7       	brne	.-10     	; 0xc40 <__fixunssfsi+0x42>
     c4a:	3e f4       	brtc	.+14     	; 0xc5a <__fixunssfsi+0x5c>
     c4c:	90 95       	com	r25
     c4e:	80 95       	com	r24
     c50:	70 95       	com	r23
     c52:	61 95       	neg	r22
     c54:	7f 4f       	sbci	r23, 0xFF	; 255
     c56:	8f 4f       	sbci	r24, 0xFF	; 255
     c58:	9f 4f       	sbci	r25, 0xFF	; 255
     c5a:	08 95       	ret

00000c5c <__floatunsisf>:
__floatunsisf():
     c5c:	e8 94       	clt
     c5e:	09 c0       	rjmp	.+18     	; 0xc72 <__floatsisf+0x12>

00000c60 <__floatsisf>:
     c60:	97 fb       	bst	r25, 7
     c62:	3e f4       	brtc	.+14     	; 0xc72 <__floatsisf+0x12>
     c64:	90 95       	com	r25
     c66:	80 95       	com	r24
     c68:	70 95       	com	r23
     c6a:	61 95       	neg	r22
     c6c:	7f 4f       	sbci	r23, 0xFF	; 255
     c6e:	8f 4f       	sbci	r24, 0xFF	; 255
     c70:	9f 4f       	sbci	r25, 0xFF	; 255
     c72:	99 23       	and	r25, r25
     c74:	a9 f0       	breq	.+42     	; 0xca0 <__floatsisf+0x40>
     c76:	f9 2f       	mov	r31, r25
     c78:	96 e9       	ldi	r25, 0x96	; 150
     c7a:	bb 27       	eor	r27, r27
     c7c:	93 95       	inc	r25
     c7e:	f6 95       	lsr	r31
     c80:	87 95       	ror	r24
     c82:	77 95       	ror	r23
     c84:	67 95       	ror	r22
     c86:	b7 95       	ror	r27
     c88:	f1 11       	cpse	r31, r1
     c8a:	f8 cf       	rjmp	.-16     	; 0xc7c <__floatsisf+0x1c>
     c8c:	fa f4       	brpl	.+62     	; 0xccc <__floatsisf+0x6c>
     c8e:	bb 0f       	add	r27, r27
     c90:	11 f4       	brne	.+4      	; 0xc96 <__floatsisf+0x36>
     c92:	60 ff       	sbrs	r22, 0
     c94:	1b c0       	rjmp	.+54     	; 0xccc <__floatsisf+0x6c>
     c96:	6f 5f       	subi	r22, 0xFF	; 255
     c98:	7f 4f       	sbci	r23, 0xFF	; 255
     c9a:	8f 4f       	sbci	r24, 0xFF	; 255
     c9c:	9f 4f       	sbci	r25, 0xFF	; 255
     c9e:	16 c0       	rjmp	.+44     	; 0xccc <__floatsisf+0x6c>
     ca0:	88 23       	and	r24, r24
     ca2:	11 f0       	breq	.+4      	; 0xca8 <__floatsisf+0x48>
     ca4:	96 e9       	ldi	r25, 0x96	; 150
     ca6:	11 c0       	rjmp	.+34     	; 0xcca <__floatsisf+0x6a>
     ca8:	77 23       	and	r23, r23
     caa:	21 f0       	breq	.+8      	; 0xcb4 <__floatsisf+0x54>
     cac:	9e e8       	ldi	r25, 0x8E	; 142
     cae:	87 2f       	mov	r24, r23
     cb0:	76 2f       	mov	r23, r22
     cb2:	05 c0       	rjmp	.+10     	; 0xcbe <__floatsisf+0x5e>
     cb4:	66 23       	and	r22, r22
     cb6:	71 f0       	breq	.+28     	; 0xcd4 <__floatsisf+0x74>
     cb8:	96 e8       	ldi	r25, 0x86	; 134
     cba:	86 2f       	mov	r24, r22
     cbc:	70 e0       	ldi	r23, 0x00	; 0
     cbe:	60 e0       	ldi	r22, 0x00	; 0
     cc0:	2a f0       	brmi	.+10     	; 0xccc <__floatsisf+0x6c>
     cc2:	9a 95       	dec	r25
     cc4:	66 0f       	add	r22, r22
     cc6:	77 1f       	adc	r23, r23
     cc8:	88 1f       	adc	r24, r24
     cca:	da f7       	brpl	.-10     	; 0xcc2 <__floatsisf+0x62>
     ccc:	88 0f       	add	r24, r24
     cce:	96 95       	lsr	r25
     cd0:	87 95       	ror	r24
     cd2:	97 f9       	bld	r25, 7
     cd4:	08 95       	ret

00000cd6 <__fp_inf>:
__fp_inf():
     cd6:	97 f9       	bld	r25, 7
     cd8:	9f 67       	ori	r25, 0x7F	; 127
     cda:	80 e8       	ldi	r24, 0x80	; 128
     cdc:	70 e0       	ldi	r23, 0x00	; 0
     cde:	60 e0       	ldi	r22, 0x00	; 0
     ce0:	08 95       	ret

00000ce2 <__fp_nan>:
__fp_nan():
     ce2:	9f ef       	ldi	r25, 0xFF	; 255
     ce4:	80 ec       	ldi	r24, 0xC0	; 192
     ce6:	08 95       	ret

00000ce8 <__fp_pscA>:
__fp_pscA():
     ce8:	00 24       	eor	r0, r0
     cea:	0a 94       	dec	r0
     cec:	16 16       	cp	r1, r22
     cee:	17 06       	cpc	r1, r23
     cf0:	18 06       	cpc	r1, r24
     cf2:	09 06       	cpc	r0, r25
     cf4:	08 95       	ret

00000cf6 <__fp_pscB>:
__fp_pscB():
     cf6:	00 24       	eor	r0, r0
     cf8:	0a 94       	dec	r0
     cfa:	12 16       	cp	r1, r18
     cfc:	13 06       	cpc	r1, r19
     cfe:	14 06       	cpc	r1, r20
     d00:	05 06       	cpc	r0, r21
     d02:	08 95       	ret

00000d04 <__fp_round>:
__fp_round():
     d04:	09 2e       	mov	r0, r25
     d06:	03 94       	inc	r0
     d08:	00 0c       	add	r0, r0
     d0a:	11 f4       	brne	.+4      	; 0xd10 <__fp_round+0xc>
     d0c:	88 23       	and	r24, r24
     d0e:	52 f0       	brmi	.+20     	; 0xd24 <__fp_round+0x20>
     d10:	bb 0f       	add	r27, r27
     d12:	40 f4       	brcc	.+16     	; 0xd24 <__fp_round+0x20>
     d14:	bf 2b       	or	r27, r31
     d16:	11 f4       	brne	.+4      	; 0xd1c <__fp_round+0x18>
     d18:	60 ff       	sbrs	r22, 0
     d1a:	04 c0       	rjmp	.+8      	; 0xd24 <__fp_round+0x20>
     d1c:	6f 5f       	subi	r22, 0xFF	; 255
     d1e:	7f 4f       	sbci	r23, 0xFF	; 255
     d20:	8f 4f       	sbci	r24, 0xFF	; 255
     d22:	9f 4f       	sbci	r25, 0xFF	; 255
     d24:	08 95       	ret

00000d26 <__fp_split3>:
__fp_split3():
     d26:	57 fd       	sbrc	r21, 7
     d28:	90 58       	subi	r25, 0x80	; 128
     d2a:	44 0f       	add	r20, r20
     d2c:	55 1f       	adc	r21, r21
     d2e:	59 f0       	breq	.+22     	; 0xd46 <__fp_splitA+0x10>
     d30:	5f 3f       	cpi	r21, 0xFF	; 255
     d32:	71 f0       	breq	.+28     	; 0xd50 <__fp_splitA+0x1a>
     d34:	47 95       	ror	r20

00000d36 <__fp_splitA>:
     d36:	88 0f       	add	r24, r24
     d38:	97 fb       	bst	r25, 7
     d3a:	99 1f       	adc	r25, r25
     d3c:	61 f0       	breq	.+24     	; 0xd56 <__fp_splitA+0x20>
     d3e:	9f 3f       	cpi	r25, 0xFF	; 255
     d40:	79 f0       	breq	.+30     	; 0xd60 <__fp_splitA+0x2a>
     d42:	87 95       	ror	r24
     d44:	08 95       	ret
     d46:	12 16       	cp	r1, r18
     d48:	13 06       	cpc	r1, r19
     d4a:	14 06       	cpc	r1, r20
     d4c:	55 1f       	adc	r21, r21
     d4e:	f2 cf       	rjmp	.-28     	; 0xd34 <__fp_split3+0xe>
     d50:	46 95       	lsr	r20
     d52:	f1 df       	rcall	.-30     	; 0xd36 <__fp_splitA>
     d54:	08 c0       	rjmp	.+16     	; 0xd66 <__fp_splitA+0x30>
     d56:	16 16       	cp	r1, r22
     d58:	17 06       	cpc	r1, r23
     d5a:	18 06       	cpc	r1, r24
     d5c:	99 1f       	adc	r25, r25
     d5e:	f1 cf       	rjmp	.-30     	; 0xd42 <__fp_splitA+0xc>
     d60:	86 95       	lsr	r24
     d62:	71 05       	cpc	r23, r1
     d64:	61 05       	cpc	r22, r1
     d66:	08 94       	sec
     d68:	08 95       	ret

00000d6a <__fp_zero>:
__fp_zero():
     d6a:	e8 94       	clt

00000d6c <__fp_szero>:
     d6c:	bb 27       	eor	r27, r27
     d6e:	66 27       	eor	r22, r22
     d70:	77 27       	eor	r23, r23
     d72:	cb 01       	movw	r24, r22
     d74:	97 f9       	bld	r25, 7
     d76:	08 95       	ret

00000d78 <__udivmodqi4>:
__udivmodqi4():
/home/jenkins-mingw32/workspace/avr-gcc-staging/label/Ubuntu14.04x64-mingw32/gcc-build/avr/avr5/libgcc/../../../../gcc/libgcc/config/avr/lib1funcs.S:1346
     d78:	99 1b       	sub	r25, r25
/home/jenkins-mingw32/workspace/avr-gcc-staging/label/Ubuntu14.04x64-mingw32/gcc-build/avr/avr5/libgcc/../../../../gcc/libgcc/config/avr/lib1funcs.S:1347
     d7a:	79 e0       	ldi	r23, 0x09	; 9
/home/jenkins-mingw32/workspace/avr-gcc-staging/label/Ubuntu14.04x64-mingw32/gcc-build/avr/avr5/libgcc/../../../../gcc/libgcc/config/avr/lib1funcs.S:1348
     d7c:	04 c0       	rjmp	.+8      	; 0xd86 <__udivmodqi4_ep>

00000d7e <__udivmodqi4_loop>:
/home/jenkins-mingw32/workspace/avr-gcc-staging/label/Ubuntu14.04x64-mingw32/gcc-build/avr/avr5/libgcc/../../../../gcc/libgcc/config/avr/lib1funcs.S:1350
     d7e:	99 1f       	adc	r25, r25
/home/jenkins-mingw32/workspace/avr-gcc-staging/label/Ubuntu14.04x64-mingw32/gcc-build/avr/avr5/libgcc/../../../../gcc/libgcc/config/avr/lib1funcs.S:1351
     d80:	96 17       	cp	r25, r22
/home/jenkins-mingw32/workspace/avr-gcc-staging/label/Ubuntu14.04x64-mingw32/gcc-build/avr/avr5/libgcc/../../../../gcc/libgcc/config/avr/lib1funcs.S:1352
     d82:	08 f0       	brcs	.+2      	; 0xd86 <__udivmodqi4_ep>
/home/jenkins-mingw32/workspace/avr-gcc-staging/label/Ubuntu14.04x64-mingw32/gcc-build/avr/avr5/libgcc/../../../../gcc/libgcc/config/avr/lib1funcs.S:1353
     d84:	96 1b       	sub	r25, r22

00000d86 <__udivmodqi4_ep>:
/home/jenkins-mingw32/workspace/avr-gcc-staging/label/Ubuntu14.04x64-mingw32/gcc-build/avr/avr5/libgcc/../../../../gcc/libgcc/config/avr/lib1funcs.S:1355
     d86:	88 1f       	adc	r24, r24
/home/jenkins-mingw32/workspace/avr-gcc-staging/label/Ubuntu14.04x64-mingw32/gcc-build/avr/avr5/libgcc/../../../../gcc/libgcc/config/avr/lib1funcs.S:1356
     d88:	7a 95       	dec	r23
/home/jenkins-mingw32/workspace/avr-gcc-staging/label/Ubuntu14.04x64-mingw32/gcc-build/avr/avr5/libgcc/../../../../gcc/libgcc/config/avr/lib1funcs.S:1357
     d8a:	c9 f7       	brne	.-14     	; 0xd7e <__udivmodqi4_loop>
/home/jenkins-mingw32/workspace/avr-gcc-staging/label/Ubuntu14.04x64-mingw32/gcc-build/avr/avr5/libgcc/../../../../gcc/libgcc/config/avr/lib1funcs.S:1358
     d8c:	80 95       	com	r24
/home/jenkins-mingw32/workspace/avr-gcc-staging/label/Ubuntu14.04x64-mingw32/gcc-build/avr/avr5/libgcc/../../../../gcc/libgcc/config/avr/lib1funcs.S:1360
     d8e:	08 95       	ret

00000d90 <__divmodhi4>:
__divmodhi4():
/home/jenkins-mingw32/workspace/avr-gcc-staging/label/Ubuntu14.04x64-mingw32/gcc-build/avr/avr5/libgcc/../../../../gcc/libgcc/config/avr/lib1funcs.S:1440
     d90:	97 fb       	bst	r25, 7
/home/jenkins-mingw32/workspace/avr-gcc-staging/label/Ubuntu14.04x64-mingw32/gcc-build/avr/avr5/libgcc/../../../../gcc/libgcc/config/avr/lib1funcs.S:1441
     d92:	07 2e       	mov	r0, r23
/home/jenkins-mingw32/workspace/avr-gcc-staging/label/Ubuntu14.04x64-mingw32/gcc-build/avr/avr5/libgcc/../../../../gcc/libgcc/config/avr/lib1funcs.S:1442
     d94:	16 f4       	brtc	.+4      	; 0xd9a <__divmodhi4+0xa>
/home/jenkins-mingw32/workspace/avr-gcc-staging/label/Ubuntu14.04x64-mingw32/gcc-build/avr/avr5/libgcc/../../../../gcc/libgcc/config/avr/lib1funcs.S:1443
     d96:	00 94       	com	r0
/home/jenkins-mingw32/workspace/avr-gcc-staging/label/Ubuntu14.04x64-mingw32/gcc-build/avr/avr5/libgcc/../../../../gcc/libgcc/config/avr/lib1funcs.S:1444
     d98:	07 d0       	rcall	.+14     	; 0xda8 <__divmodhi4_neg1>
/home/jenkins-mingw32/workspace/avr-gcc-staging/label/Ubuntu14.04x64-mingw32/gcc-build/avr/avr5/libgcc/../../../../gcc/libgcc/config/avr/lib1funcs.S:1446
     d9a:	77 fd       	sbrc	r23, 7
/home/jenkins-mingw32/workspace/avr-gcc-staging/label/Ubuntu14.04x64-mingw32/gcc-build/avr/avr5/libgcc/../../../../gcc/libgcc/config/avr/lib1funcs.S:1447
     d9c:	09 d0       	rcall	.+18     	; 0xdb0 <__divmodhi4_neg2>
/home/jenkins-mingw32/workspace/avr-gcc-staging/label/Ubuntu14.04x64-mingw32/gcc-build/avr/avr5/libgcc/../../../../gcc/libgcc/config/avr/lib1funcs.S:1448
     d9e:	0e 94 04 07 	call	0xe08	; 0xe08 <__udivmodhi4>
/home/jenkins-mingw32/workspace/avr-gcc-staging/label/Ubuntu14.04x64-mingw32/gcc-build/avr/avr5/libgcc/../../../../gcc/libgcc/config/avr/lib1funcs.S:1449
     da2:	07 fc       	sbrc	r0, 7
/home/jenkins-mingw32/workspace/avr-gcc-staging/label/Ubuntu14.04x64-mingw32/gcc-build/avr/avr5/libgcc/../../../../gcc/libgcc/config/avr/lib1funcs.S:1450
     da4:	05 d0       	rcall	.+10     	; 0xdb0 <__divmodhi4_neg2>
/home/jenkins-mingw32/workspace/avr-gcc-staging/label/Ubuntu14.04x64-mingw32/gcc-build/avr/avr5/libgcc/../../../../gcc/libgcc/config/avr/lib1funcs.S:1451
     da6:	3e f4       	brtc	.+14     	; 0xdb6 <__divmodhi4_exit>

00000da8 <__divmodhi4_neg1>:
/home/jenkins-mingw32/workspace/avr-gcc-staging/label/Ubuntu14.04x64-mingw32/gcc-build/avr/avr5/libgcc/../../../../gcc/libgcc/config/avr/lib1funcs.S:1454
     da8:	90 95       	com	r25
/home/jenkins-mingw32/workspace/avr-gcc-staging/label/Ubuntu14.04x64-mingw32/gcc-build/avr/avr5/libgcc/../../../../gcc/libgcc/config/avr/lib1funcs.S:1455
     daa:	81 95       	neg	r24
/home/jenkins-mingw32/workspace/avr-gcc-staging/label/Ubuntu14.04x64-mingw32/gcc-build/avr/avr5/libgcc/../../../../gcc/libgcc/config/avr/lib1funcs.S:1456
     dac:	9f 4f       	sbci	r25, 0xFF	; 255
/home/jenkins-mingw32/workspace/avr-gcc-staging/label/Ubuntu14.04x64-mingw32/gcc-build/avr/avr5/libgcc/../../../../gcc/libgcc/config/avr/lib1funcs.S:1457
     dae:	08 95       	ret

00000db0 <__divmodhi4_neg2>:
/home/jenkins-mingw32/workspace/avr-gcc-staging/label/Ubuntu14.04x64-mingw32/gcc-build/avr/avr5/libgcc/../../../../gcc/libgcc/config/avr/lib1funcs.S:1460
     db0:	70 95       	com	r23
/home/jenkins-mingw32/workspace/avr-gcc-staging/label/Ubuntu14.04x64-mingw32/gcc-build/avr/avr5/libgcc/../../../../gcc/libgcc/config/avr/lib1funcs.S:1461
     db2:	61 95       	neg	r22
/home/jenkins-mingw32/workspace/avr-gcc-staging/label/Ubuntu14.04x64-mingw32/gcc-build/avr/avr5/libgcc/../../../../gcc/libgcc/config/avr/lib1funcs.S:1462
     db4:	7f 4f       	sbci	r23, 0xFF	; 255

00000db6 <__divmodhi4_exit>:
/home/jenkins-mingw32/workspace/avr-gcc-staging/label/Ubuntu14.04x64-mingw32/gcc-build/avr/avr5/libgcc/../../../../gcc/libgcc/config/avr/lib1funcs.S:1464
     db6:	08 95       	ret

00000db8 <__udivmodsi4>:
__udivmodsi4():
/home/jenkins-mingw32/workspace/avr-gcc-staging/label/Ubuntu14.04x64-mingw32/gcc-build/avr/avr5/libgcc/../../../../gcc/libgcc/config/avr/lib1funcs.S:1638
     db8:	a1 e2       	ldi	r26, 0x21	; 33
/home/jenkins-mingw32/workspace/avr-gcc-staging/label/Ubuntu14.04x64-mingw32/gcc-build/avr/avr5/libgcc/../../../../gcc/libgcc/config/avr/lib1funcs.S:1639
     dba:	1a 2e       	mov	r1, r26
/home/jenkins-mingw32/workspace/avr-gcc-staging/label/Ubuntu14.04x64-mingw32/gcc-build/avr/avr5/libgcc/../../../../gcc/libgcc/config/avr/lib1funcs.S:1640
     dbc:	aa 1b       	sub	r26, r26
/home/jenkins-mingw32/workspace/avr-gcc-staging/label/Ubuntu14.04x64-mingw32/gcc-build/avr/avr5/libgcc/../../../../gcc/libgcc/config/avr/lib1funcs.S:1641
     dbe:	bb 1b       	sub	r27, r27
/home/jenkins-mingw32/workspace/avr-gcc-staging/label/Ubuntu14.04x64-mingw32/gcc-build/avr/avr5/libgcc/../../../../gcc/libgcc/config/avr/lib1funcs.S:1642
     dc0:	fd 01       	movw	r30, r26
/home/jenkins-mingw32/workspace/avr-gcc-staging/label/Ubuntu14.04x64-mingw32/gcc-build/avr/avr5/libgcc/../../../../gcc/libgcc/config/avr/lib1funcs.S:1644
     dc2:	0d c0       	rjmp	.+26     	; 0xdde <__udivmodsi4_ep>

00000dc4 <__udivmodsi4_loop>:
/home/jenkins-mingw32/workspace/avr-gcc-staging/label/Ubuntu14.04x64-mingw32/gcc-build/avr/avr5/libgcc/../../../../gcc/libgcc/config/avr/lib1funcs.S:1646
     dc4:	aa 1f       	adc	r26, r26
/home/jenkins-mingw32/workspace/avr-gcc-staging/label/Ubuntu14.04x64-mingw32/gcc-build/avr/avr5/libgcc/../../../../gcc/libgcc/config/avr/lib1funcs.S:1647
     dc6:	bb 1f       	adc	r27, r27
/home/jenkins-mingw32/workspace/avr-gcc-staging/label/Ubuntu14.04x64-mingw32/gcc-build/avr/avr5/libgcc/../../../../gcc/libgcc/config/avr/lib1funcs.S:1648
     dc8:	ee 1f       	adc	r30, r30
/home/jenkins-mingw32/workspace/avr-gcc-staging/label/Ubuntu14.04x64-mingw32/gcc-build/avr/avr5/libgcc/../../../../gcc/libgcc/config/avr/lib1funcs.S:1649
     dca:	ff 1f       	adc	r31, r31
/home/jenkins-mingw32/workspace/avr-gcc-staging/label/Ubuntu14.04x64-mingw32/gcc-build/avr/avr5/libgcc/../../../../gcc/libgcc/config/avr/lib1funcs.S:1650
     dcc:	a2 17       	cp	r26, r18
/home/jenkins-mingw32/workspace/avr-gcc-staging/label/Ubuntu14.04x64-mingw32/gcc-build/avr/avr5/libgcc/../../../../gcc/libgcc/config/avr/lib1funcs.S:1651
     dce:	b3 07       	cpc	r27, r19
/home/jenkins-mingw32/workspace/avr-gcc-staging/label/Ubuntu14.04x64-mingw32/gcc-build/avr/avr5/libgcc/../../../../gcc/libgcc/config/avr/lib1funcs.S:1652
     dd0:	e4 07       	cpc	r30, r20
/home/jenkins-mingw32/workspace/avr-gcc-staging/label/Ubuntu14.04x64-mingw32/gcc-build/avr/avr5/libgcc/../../../../gcc/libgcc/config/avr/lib1funcs.S:1653
     dd2:	f5 07       	cpc	r31, r21
/home/jenkins-mingw32/workspace/avr-gcc-staging/label/Ubuntu14.04x64-mingw32/gcc-build/avr/avr5/libgcc/../../../../gcc/libgcc/config/avr/lib1funcs.S:1654
     dd4:	20 f0       	brcs	.+8      	; 0xdde <__udivmodsi4_ep>
/home/jenkins-mingw32/workspace/avr-gcc-staging/label/Ubuntu14.04x64-mingw32/gcc-build/avr/avr5/libgcc/../../../../gcc/libgcc/config/avr/lib1funcs.S:1655
     dd6:	a2 1b       	sub	r26, r18
/home/jenkins-mingw32/workspace/avr-gcc-staging/label/Ubuntu14.04x64-mingw32/gcc-build/avr/avr5/libgcc/../../../../gcc/libgcc/config/avr/lib1funcs.S:1656
     dd8:	b3 0b       	sbc	r27, r19
/home/jenkins-mingw32/workspace/avr-gcc-staging/label/Ubuntu14.04x64-mingw32/gcc-build/avr/avr5/libgcc/../../../../gcc/libgcc/config/avr/lib1funcs.S:1657
     dda:	e4 0b       	sbc	r30, r20
/home/jenkins-mingw32/workspace/avr-gcc-staging/label/Ubuntu14.04x64-mingw32/gcc-build/avr/avr5/libgcc/../../../../gcc/libgcc/config/avr/lib1funcs.S:1658
     ddc:	f5 0b       	sbc	r31, r21

00000dde <__udivmodsi4_ep>:
/home/jenkins-mingw32/workspace/avr-gcc-staging/label/Ubuntu14.04x64-mingw32/gcc-build/avr/avr5/libgcc/../../../../gcc/libgcc/config/avr/lib1funcs.S:1660
     dde:	66 1f       	adc	r22, r22
/home/jenkins-mingw32/workspace/avr-gcc-staging/label/Ubuntu14.04x64-mingw32/gcc-build/avr/avr5/libgcc/../../../../gcc/libgcc/config/avr/lib1funcs.S:1661
     de0:	77 1f       	adc	r23, r23
/home/jenkins-mingw32/workspace/avr-gcc-staging/label/Ubuntu14.04x64-mingw32/gcc-build/avr/avr5/libgcc/../../../../gcc/libgcc/config/avr/lib1funcs.S:1662
     de2:	88 1f       	adc	r24, r24
/home/jenkins-mingw32/workspace/avr-gcc-staging/label/Ubuntu14.04x64-mingw32/gcc-build/avr/avr5/libgcc/../../../../gcc/libgcc/config/avr/lib1funcs.S:1663
     de4:	99 1f       	adc	r25, r25
/home/jenkins-mingw32/workspace/avr-gcc-staging/label/Ubuntu14.04x64-mingw32/gcc-build/avr/avr5/libgcc/../../../../gcc/libgcc/config/avr/lib1funcs.S:1664
     de6:	1a 94       	dec	r1
/home/jenkins-mingw32/workspace/avr-gcc-staging/label/Ubuntu14.04x64-mingw32/gcc-build/avr/avr5/libgcc/../../../../gcc/libgcc/config/avr/lib1funcs.S:1665
     de8:	69 f7       	brne	.-38     	; 0xdc4 <__udivmodsi4_loop>
/home/jenkins-mingw32/workspace/avr-gcc-staging/label/Ubuntu14.04x64-mingw32/gcc-build/avr/avr5/libgcc/../../../../gcc/libgcc/config/avr/lib1funcs.S:1667
     dea:	60 95       	com	r22
/home/jenkins-mingw32/workspace/avr-gcc-staging/label/Ubuntu14.04x64-mingw32/gcc-build/avr/avr5/libgcc/../../../../gcc/libgcc/config/avr/lib1funcs.S:1668
     dec:	70 95       	com	r23
/home/jenkins-mingw32/workspace/avr-gcc-staging/label/Ubuntu14.04x64-mingw32/gcc-build/avr/avr5/libgcc/../../../../gcc/libgcc/config/avr/lib1funcs.S:1669
     dee:	80 95       	com	r24
/home/jenkins-mingw32/workspace/avr-gcc-staging/label/Ubuntu14.04x64-mingw32/gcc-build/avr/avr5/libgcc/../../../../gcc/libgcc/config/avr/lib1funcs.S:1670
     df0:	90 95       	com	r25
/home/jenkins-mingw32/workspace/avr-gcc-staging/label/Ubuntu14.04x64-mingw32/gcc-build/avr/avr5/libgcc/../../../../gcc/libgcc/config/avr/lib1funcs.S:1672
     df2:	9b 01       	movw	r18, r22
/home/jenkins-mingw32/workspace/avr-gcc-staging/label/Ubuntu14.04x64-mingw32/gcc-build/avr/avr5/libgcc/../../../../gcc/libgcc/config/avr/lib1funcs.S:1674
     df4:	ac 01       	movw	r20, r24
/home/jenkins-mingw32/workspace/avr-gcc-staging/label/Ubuntu14.04x64-mingw32/gcc-build/avr/avr5/libgcc/../../../../gcc/libgcc/config/avr/lib1funcs.S:1676
     df6:	bd 01       	movw	r22, r26
/home/jenkins-mingw32/workspace/avr-gcc-staging/label/Ubuntu14.04x64-mingw32/gcc-build/avr/avr5/libgcc/../../../../gcc/libgcc/config/avr/lib1funcs.S:1678
     df8:	cf 01       	movw	r24, r30
/home/jenkins-mingw32/workspace/avr-gcc-staging/label/Ubuntu14.04x64-mingw32/gcc-build/avr/avr5/libgcc/../../../../gcc/libgcc/config/avr/lib1funcs.S:1680
     dfa:	08 95       	ret

00000dfc <__tablejump2__>:
__tablejump2__():
/home/jenkins-mingw32/workspace/avr-gcc-staging/label/Ubuntu14.04x64-mingw32/gcc-build/avr/avr5/libgcc/../../../../gcc/libgcc/config/avr/lib1funcs.S:2296
     dfc:	ee 0f       	add	r30, r30
/home/jenkins-mingw32/workspace/avr-gcc-staging/label/Ubuntu14.04x64-mingw32/gcc-build/avr/avr5/libgcc/../../../../gcc/libgcc/config/avr/lib1funcs.S:2297
     dfe:	ff 1f       	adc	r31, r31
/home/jenkins-mingw32/workspace/avr-gcc-staging/label/Ubuntu14.04x64-mingw32/gcc-build/avr/avr5/libgcc/../../../../gcc/libgcc/config/avr/lib1funcs.S:2328
     e00:	05 90       	lpm	r0, Z+
/home/jenkins-mingw32/workspace/avr-gcc-staging/label/Ubuntu14.04x64-mingw32/gcc-build/avr/avr5/libgcc/../../../../gcc/libgcc/config/avr/lib1funcs.S:2329
     e02:	f4 91       	lpm	r31, Z
/home/jenkins-mingw32/workspace/avr-gcc-staging/label/Ubuntu14.04x64-mingw32/gcc-build/avr/avr5/libgcc/../../../../gcc/libgcc/config/avr/lib1funcs.S:2330
     e04:	e0 2d       	mov	r30, r0
/home/jenkins-mingw32/workspace/avr-gcc-staging/label/Ubuntu14.04x64-mingw32/gcc-build/avr/avr5/libgcc/../../../../gcc/libgcc/config/avr/lib1funcs.S:2331
     e06:	09 94       	ijmp

00000e08 <__udivmodhi4>:
__udivmodhi4():
/home/jenkins-mingw32/workspace/avr-gcc-staging/label/Ubuntu14.04x64-mingw32/gcc-build/avr/avr5/libgcc/../../../../gcc/libgcc/config/avr/lib1funcs.S:1408
     e08:	aa 1b       	sub	r26, r26
/home/jenkins-mingw32/workspace/avr-gcc-staging/label/Ubuntu14.04x64-mingw32/gcc-build/avr/avr5/libgcc/../../../../gcc/libgcc/config/avr/lib1funcs.S:1409
     e0a:	bb 1b       	sub	r27, r27
/home/jenkins-mingw32/workspace/avr-gcc-staging/label/Ubuntu14.04x64-mingw32/gcc-build/avr/avr5/libgcc/../../../../gcc/libgcc/config/avr/lib1funcs.S:1410
     e0c:	51 e1       	ldi	r21, 0x11	; 17
/home/jenkins-mingw32/workspace/avr-gcc-staging/label/Ubuntu14.04x64-mingw32/gcc-build/avr/avr5/libgcc/../../../../gcc/libgcc/config/avr/lib1funcs.S:1411
     e0e:	07 c0       	rjmp	.+14     	; 0xe1e <__udivmodhi4_ep>

00000e10 <__udivmodhi4_loop>:
/home/jenkins-mingw32/workspace/avr-gcc-staging/label/Ubuntu14.04x64-mingw32/gcc-build/avr/avr5/libgcc/../../../../gcc/libgcc/config/avr/lib1funcs.S:1413
     e10:	aa 1f       	adc	r26, r26
/home/jenkins-mingw32/workspace/avr-gcc-staging/label/Ubuntu14.04x64-mingw32/gcc-build/avr/avr5/libgcc/../../../../gcc/libgcc/config/avr/lib1funcs.S:1414
     e12:	bb 1f       	adc	r27, r27
/home/jenkins-mingw32/workspace/avr-gcc-staging/label/Ubuntu14.04x64-mingw32/gcc-build/avr/avr5/libgcc/../../../../gcc/libgcc/config/avr/lib1funcs.S:1415
     e14:	a6 17       	cp	r26, r22
/home/jenkins-mingw32/workspace/avr-gcc-staging/label/Ubuntu14.04x64-mingw32/gcc-build/avr/avr5/libgcc/../../../../gcc/libgcc/config/avr/lib1funcs.S:1416
     e16:	b7 07       	cpc	r27, r23
/home/jenkins-mingw32/workspace/avr-gcc-staging/label/Ubuntu14.04x64-mingw32/gcc-build/avr/avr5/libgcc/../../../../gcc/libgcc/config/avr/lib1funcs.S:1417
     e18:	10 f0       	brcs	.+4      	; 0xe1e <__udivmodhi4_ep>
/home/jenkins-mingw32/workspace/avr-gcc-staging/label/Ubuntu14.04x64-mingw32/gcc-build/avr/avr5/libgcc/../../../../gcc/libgcc/config/avr/lib1funcs.S:1418
     e1a:	a6 1b       	sub	r26, r22
/home/jenkins-mingw32/workspace/avr-gcc-staging/label/Ubuntu14.04x64-mingw32/gcc-build/avr/avr5/libgcc/../../../../gcc/libgcc/config/avr/lib1funcs.S:1419
     e1c:	b7 0b       	sbc	r27, r23

00000e1e <__udivmodhi4_ep>:
/home/jenkins-mingw32/workspace/avr-gcc-staging/label/Ubuntu14.04x64-mingw32/gcc-build/avr/avr5/libgcc/../../../../gcc/libgcc/config/avr/lib1funcs.S:1421
     e1e:	88 1f       	adc	r24, r24
/home/jenkins-mingw32/workspace/avr-gcc-staging/label/Ubuntu14.04x64-mingw32/gcc-build/avr/avr5/libgcc/../../../../gcc/libgcc/config/avr/lib1funcs.S:1422
     e20:	99 1f       	adc	r25, r25
/home/jenkins-mingw32/workspace/avr-gcc-staging/label/Ubuntu14.04x64-mingw32/gcc-build/avr/avr5/libgcc/../../../../gcc/libgcc/config/avr/lib1funcs.S:1423
     e22:	5a 95       	dec	r21
/home/jenkins-mingw32/workspace/avr-gcc-staging/label/Ubuntu14.04x64-mingw32/gcc-build/avr/avr5/libgcc/../../../../gcc/libgcc/config/avr/lib1funcs.S:1424
     e24:	a9 f7       	brne	.-22     	; 0xe10 <__udivmodhi4_loop>
/home/jenkins-mingw32/workspace/avr-gcc-staging/label/Ubuntu14.04x64-mingw32/gcc-build/avr/avr5/libgcc/../../../../gcc/libgcc/config/avr/lib1funcs.S:1425
     e26:	80 95       	com	r24
/home/jenkins-mingw32/workspace/avr-gcc-staging/label/Ubuntu14.04x64-mingw32/gcc-build/avr/avr5/libgcc/../../../../gcc/libgcc/config/avr/lib1funcs.S:1426
     e28:	90 95       	com	r25
/home/jenkins-mingw32/workspace/avr-gcc-staging/label/Ubuntu14.04x64-mingw32/gcc-build/avr/avr5/libgcc/../../../../gcc/libgcc/config/avr/lib1funcs.S:1428
     e2a:	bc 01       	movw	r22, r24
/home/jenkins-mingw32/workspace/avr-gcc-staging/label/Ubuntu14.04x64-mingw32/gcc-build/avr/avr5/libgcc/../../../../gcc/libgcc/config/avr/lib1funcs.S:1430
     e2c:	cd 01       	movw	r24, r26
/home/jenkins-mingw32/workspace/avr-gcc-staging/label/Ubuntu14.04x64-mingw32/gcc-build/avr/avr5/libgcc/../../../../gcc/libgcc/config/avr/lib1funcs.S:1432
     e2e:	08 95       	ret

00000e30 <sprintf>:
sprintf():
     e30:	ae e0       	ldi	r26, 0x0E	; 14
     e32:	b0 e0       	ldi	r27, 0x00	; 0
     e34:	ee e1       	ldi	r30, 0x1E	; 30
     e36:	f7 e0       	ldi	r31, 0x07	; 7
     e38:	0c 94 c7 09 	jmp	0x138e	; 0x138e <__prologue_saves__+0x1c>
     e3c:	0d 89       	ldd	r16, Y+21	; 0x15
     e3e:	1e 89       	ldd	r17, Y+22	; 0x16
     e40:	86 e0       	ldi	r24, 0x06	; 6
     e42:	8c 83       	std	Y+4, r24	; 0x04
     e44:	1a 83       	std	Y+2, r17	; 0x02
     e46:	09 83       	std	Y+1, r16	; 0x01
     e48:	8f ef       	ldi	r24, 0xFF	; 255
     e4a:	9f e7       	ldi	r25, 0x7F	; 127
     e4c:	9e 83       	std	Y+6, r25	; 0x06
     e4e:	8d 83       	std	Y+5, r24	; 0x05
     e50:	ae 01       	movw	r20, r28
     e52:	47 5e       	subi	r20, 0xE7	; 231
     e54:	5f 4f       	sbci	r21, 0xFF	; 255
     e56:	6f 89       	ldd	r22, Y+23	; 0x17
     e58:	78 8d       	ldd	r23, Y+24	; 0x18
     e5a:	ce 01       	movw	r24, r28
     e5c:	01 96       	adiw	r24, 0x01	; 1
     e5e:	0e 94 3b 07 	call	0xe76	; 0xe76 <vfprintf>
     e62:	2f 81       	ldd	r18, Y+7	; 0x07
     e64:	38 85       	ldd	r19, Y+8	; 0x08
     e66:	02 0f       	add	r16, r18
     e68:	13 1f       	adc	r17, r19
     e6a:	f8 01       	movw	r30, r16
     e6c:	10 82       	st	Z, r1
     e6e:	2e 96       	adiw	r28, 0x0e	; 14
     e70:	e4 e0       	ldi	r30, 0x04	; 4
     e72:	0c 94 e3 09 	jmp	0x13c6	; 0x13c6 <__epilogue_restores__+0x1c>

00000e76 <vfprintf>:
vfprintf():
     e76:	ab e0       	ldi	r26, 0x0B	; 11
     e78:	b0 e0       	ldi	r27, 0x00	; 0
     e7a:	e1 e4       	ldi	r30, 0x41	; 65
     e7c:	f7 e0       	ldi	r31, 0x07	; 7
     e7e:	0c 94 b9 09 	jmp	0x1372	; 0x1372 <__prologue_saves__>
     e82:	7c 01       	movw	r14, r24
     e84:	3b 01       	movw	r6, r22
     e86:	8a 01       	movw	r16, r20
     e88:	fc 01       	movw	r30, r24
     e8a:	17 82       	std	Z+7, r1	; 0x07
     e8c:	16 82       	std	Z+6, r1	; 0x06
     e8e:	83 81       	ldd	r24, Z+3	; 0x03
     e90:	81 ff       	sbrs	r24, 1
     e92:	c8 c1       	rjmp	.+912    	; 0x1224 <vfprintf+0x3ae>
     e94:	ce 01       	movw	r24, r28
     e96:	01 96       	adiw	r24, 0x01	; 1
     e98:	5c 01       	movw	r10, r24
     e9a:	f7 01       	movw	r30, r14
     e9c:	93 81       	ldd	r25, Z+3	; 0x03
     e9e:	f3 01       	movw	r30, r6
     ea0:	93 fd       	sbrc	r25, 3
     ea2:	85 91       	lpm	r24, Z+
     ea4:	93 ff       	sbrs	r25, 3
     ea6:	81 91       	ld	r24, Z+
     ea8:	3f 01       	movw	r6, r30
     eaa:	88 23       	and	r24, r24
     eac:	09 f4       	brne	.+2      	; 0xeb0 <vfprintf+0x3a>
     eae:	53 c1       	rjmp	.+678    	; 0x1156 <vfprintf+0x2e0>
     eb0:	85 32       	cpi	r24, 0x25	; 37
     eb2:	39 f4       	brne	.+14     	; 0xec2 <vfprintf+0x4c>
     eb4:	93 fd       	sbrc	r25, 3
     eb6:	85 91       	lpm	r24, Z+
     eb8:	93 ff       	sbrs	r25, 3
     eba:	81 91       	ld	r24, Z+
     ebc:	3f 01       	movw	r6, r30
     ebe:	85 32       	cpi	r24, 0x25	; 37
     ec0:	29 f4       	brne	.+10     	; 0xecc <vfprintf+0x56>
     ec2:	b7 01       	movw	r22, r14
     ec4:	90 e0       	ldi	r25, 0x00	; 0
     ec6:	0e 94 2b 09 	call	0x1256	; 0x1256 <fputc>
     eca:	e7 cf       	rjmp	.-50     	; 0xe9a <vfprintf+0x24>
     ecc:	91 2c       	mov	r9, r1
     ece:	21 2c       	mov	r2, r1
     ed0:	31 2c       	mov	r3, r1
     ed2:	ff e1       	ldi	r31, 0x1F	; 31
     ed4:	f3 15       	cp	r31, r3
     ed6:	38 f0       	brcs	.+14     	; 0xee6 <vfprintf+0x70>
     ed8:	8b 32       	cpi	r24, 0x2B	; 43
     eda:	11 f1       	breq	.+68     	; 0xf20 <vfprintf+0xaa>
     edc:	90 f4       	brcc	.+36     	; 0xf02 <vfprintf+0x8c>
     ede:	80 32       	cpi	r24, 0x20	; 32
     ee0:	09 f1       	breq	.+66     	; 0xf24 <vfprintf+0xae>
     ee2:	83 32       	cpi	r24, 0x23	; 35
     ee4:	29 f1       	breq	.+74     	; 0xf30 <vfprintf+0xba>
     ee6:	37 fc       	sbrc	r3, 7
     ee8:	3c c0       	rjmp	.+120    	; 0xf62 <vfprintf+0xec>
     eea:	20 ed       	ldi	r18, 0xD0	; 208
     eec:	28 0f       	add	r18, r24
     eee:	2a 30       	cpi	r18, 0x0A	; 10
     ef0:	50 f5       	brcc	.+84     	; 0xf46 <vfprintf+0xd0>
     ef2:	36 fe       	sbrs	r3, 6
     ef4:	20 c0       	rjmp	.+64     	; 0xf36 <vfprintf+0xc0>
     ef6:	8a e0       	ldi	r24, 0x0A	; 10
     ef8:	98 9e       	mul	r9, r24
     efa:	20 0d       	add	r18, r0
     efc:	11 24       	eor	r1, r1
     efe:	92 2e       	mov	r9, r18
     f00:	06 c0       	rjmp	.+12     	; 0xf0e <vfprintf+0x98>
     f02:	8d 32       	cpi	r24, 0x2D	; 45
     f04:	91 f0       	breq	.+36     	; 0xf2a <vfprintf+0xb4>
     f06:	80 33       	cpi	r24, 0x30	; 48
     f08:	71 f7       	brne	.-36     	; 0xee6 <vfprintf+0x70>
     f0a:	68 94       	set
     f0c:	30 f8       	bld	r3, 0
     f0e:	f3 01       	movw	r30, r6
     f10:	93 fd       	sbrc	r25, 3
     f12:	85 91       	lpm	r24, Z+
     f14:	93 ff       	sbrs	r25, 3
     f16:	81 91       	ld	r24, Z+
     f18:	3f 01       	movw	r6, r30
     f1a:	81 11       	cpse	r24, r1
     f1c:	da cf       	rjmp	.-76     	; 0xed2 <vfprintf+0x5c>
     f1e:	21 c0       	rjmp	.+66     	; 0xf62 <vfprintf+0xec>
     f20:	68 94       	set
     f22:	31 f8       	bld	r3, 1
     f24:	68 94       	set
     f26:	32 f8       	bld	r3, 2
     f28:	f2 cf       	rjmp	.-28     	; 0xf0e <vfprintf+0x98>
     f2a:	68 94       	set
     f2c:	33 f8       	bld	r3, 3
     f2e:	ef cf       	rjmp	.-34     	; 0xf0e <vfprintf+0x98>
     f30:	68 94       	set
     f32:	34 f8       	bld	r3, 4
     f34:	ec cf       	rjmp	.-40     	; 0xf0e <vfprintf+0x98>
     f36:	ea e0       	ldi	r30, 0x0A	; 10
     f38:	2e 9e       	mul	r2, r30
     f3a:	20 0d       	add	r18, r0
     f3c:	11 24       	eor	r1, r1
     f3e:	22 2e       	mov	r2, r18
     f40:	68 94       	set
     f42:	35 f8       	bld	r3, 5
     f44:	e4 cf       	rjmp	.-56     	; 0xf0e <vfprintf+0x98>
     f46:	8e 32       	cpi	r24, 0x2E	; 46
     f48:	29 f4       	brne	.+10     	; 0xf54 <vfprintf+0xde>
     f4a:	36 fc       	sbrc	r3, 6
     f4c:	04 c1       	rjmp	.+520    	; 0x1156 <vfprintf+0x2e0>
     f4e:	68 94       	set
     f50:	36 f8       	bld	r3, 6
     f52:	dd cf       	rjmp	.-70     	; 0xf0e <vfprintf+0x98>
     f54:	8c 36       	cpi	r24, 0x6C	; 108
     f56:	19 f4       	brne	.+6      	; 0xf5e <vfprintf+0xe8>
     f58:	68 94       	set
     f5a:	37 f8       	bld	r3, 7
     f5c:	d8 cf       	rjmp	.-80     	; 0xf0e <vfprintf+0x98>
     f5e:	88 36       	cpi	r24, 0x68	; 104
     f60:	b1 f2       	breq	.-84     	; 0xf0e <vfprintf+0x98>
     f62:	98 2f       	mov	r25, r24
     f64:	9f 7d       	andi	r25, 0xDF	; 223
     f66:	95 54       	subi	r25, 0x45	; 69
     f68:	93 30       	cpi	r25, 0x03	; 3
     f6a:	e0 f0       	brcs	.+56     	; 0xfa4 <vfprintf+0x12e>
     f6c:	83 36       	cpi	r24, 0x63	; 99
     f6e:	a1 f1       	breq	.+104    	; 0xfd8 <vfprintf+0x162>
     f70:	83 37       	cpi	r24, 0x73	; 115
     f72:	c1 f1       	breq	.+112    	; 0xfe4 <vfprintf+0x16e>
     f74:	83 35       	cpi	r24, 0x53	; 83
     f76:	09 f0       	breq	.+2      	; 0xf7a <vfprintf+0x104>
     f78:	63 c0       	rjmp	.+198    	; 0x1040 <vfprintf+0x1ca>
     f7a:	28 01       	movw	r4, r16
     f7c:	f2 e0       	ldi	r31, 0x02	; 2
     f7e:	4f 0e       	add	r4, r31
     f80:	51 1c       	adc	r5, r1
     f82:	f8 01       	movw	r30, r16
     f84:	c0 80       	ld	r12, Z
     f86:	d1 80       	ldd	r13, Z+1	; 0x01
     f88:	69 2d       	mov	r22, r9
     f8a:	70 e0       	ldi	r23, 0x00	; 0
     f8c:	36 fc       	sbrc	r3, 6
     f8e:	02 c0       	rjmp	.+4      	; 0xf94 <vfprintf+0x11e>
     f90:	6f ef       	ldi	r22, 0xFF	; 255
     f92:	7f ef       	ldi	r23, 0xFF	; 255
     f94:	c6 01       	movw	r24, r12
     f96:	0e 94 15 09 	call	0x122a	; 0x122a <strnlen_P>
     f9a:	4c 01       	movw	r8, r24
     f9c:	68 94       	set
     f9e:	37 f8       	bld	r3, 7
     fa0:	82 01       	movw	r16, r4
     fa2:	0a c0       	rjmp	.+20     	; 0xfb8 <vfprintf+0x142>
     fa4:	0c 5f       	subi	r16, 0xFC	; 252
     fa6:	1f 4f       	sbci	r17, 0xFF	; 255
     fa8:	ff e3       	ldi	r31, 0x3F	; 63
     faa:	f9 83       	std	Y+1, r31	; 0x01
     fac:	88 24       	eor	r8, r8
     fae:	83 94       	inc	r8
     fb0:	91 2c       	mov	r9, r1
     fb2:	65 01       	movw	r12, r10
     fb4:	e8 94       	clt
     fb6:	37 f8       	bld	r3, 7
     fb8:	33 fe       	sbrs	r3, 3
     fba:	2d c0       	rjmp	.+90     	; 0x1016 <vfprintf+0x1a0>
     fbc:	52 2c       	mov	r5, r2
     fbe:	81 14       	cp	r8, r1
     fc0:	91 04       	cpc	r9, r1
     fc2:	71 f5       	brne	.+92     	; 0x1020 <vfprintf+0x1aa>
     fc4:	55 20       	and	r5, r5
     fc6:	09 f4       	brne	.+2      	; 0xfca <vfprintf+0x154>
     fc8:	68 cf       	rjmp	.-304    	; 0xe9a <vfprintf+0x24>
     fca:	b7 01       	movw	r22, r14
     fcc:	80 e2       	ldi	r24, 0x20	; 32
     fce:	90 e0       	ldi	r25, 0x00	; 0
     fd0:	0e 94 2b 09 	call	0x1256	; 0x1256 <fputc>
     fd4:	5a 94       	dec	r5
     fd6:	f6 cf       	rjmp	.-20     	; 0xfc4 <vfprintf+0x14e>
     fd8:	f8 01       	movw	r30, r16
     fda:	80 81       	ld	r24, Z
     fdc:	89 83       	std	Y+1, r24	; 0x01
     fde:	0e 5f       	subi	r16, 0xFE	; 254
     fe0:	1f 4f       	sbci	r17, 0xFF	; 255
     fe2:	e4 cf       	rjmp	.-56     	; 0xfac <vfprintf+0x136>
     fe4:	28 01       	movw	r4, r16
     fe6:	f2 e0       	ldi	r31, 0x02	; 2
     fe8:	4f 0e       	add	r4, r31
     fea:	51 1c       	adc	r5, r1
     fec:	f8 01       	movw	r30, r16
     fee:	c0 80       	ld	r12, Z
     ff0:	d1 80       	ldd	r13, Z+1	; 0x01
     ff2:	69 2d       	mov	r22, r9
     ff4:	70 e0       	ldi	r23, 0x00	; 0
     ff6:	36 fc       	sbrc	r3, 6
     ff8:	02 c0       	rjmp	.+4      	; 0xffe <vfprintf+0x188>
     ffa:	6f ef       	ldi	r22, 0xFF	; 255
     ffc:	7f ef       	ldi	r23, 0xFF	; 255
     ffe:	c6 01       	movw	r24, r12
    1000:	0e 94 20 09 	call	0x1240	; 0x1240 <strnlen>
    1004:	4c 01       	movw	r8, r24
    1006:	82 01       	movw	r16, r4
    1008:	d5 cf       	rjmp	.-86     	; 0xfb4 <vfprintf+0x13e>
    100a:	b7 01       	movw	r22, r14
    100c:	80 e2       	ldi	r24, 0x20	; 32
    100e:	90 e0       	ldi	r25, 0x00	; 0
    1010:	0e 94 2b 09 	call	0x1256	; 0x1256 <fputc>
    1014:	2a 94       	dec	r2
    1016:	28 14       	cp	r2, r8
    1018:	19 04       	cpc	r1, r9
    101a:	09 f0       	breq	.+2      	; 0x101e <vfprintf+0x1a8>
    101c:	b0 f7       	brcc	.-20     	; 0x100a <vfprintf+0x194>
    101e:	ce cf       	rjmp	.-100    	; 0xfbc <vfprintf+0x146>
    1020:	f6 01       	movw	r30, r12
    1022:	37 fc       	sbrc	r3, 7
    1024:	85 91       	lpm	r24, Z+
    1026:	37 fe       	sbrs	r3, 7
    1028:	81 91       	ld	r24, Z+
    102a:	6f 01       	movw	r12, r30
    102c:	b7 01       	movw	r22, r14
    102e:	90 e0       	ldi	r25, 0x00	; 0
    1030:	0e 94 2b 09 	call	0x1256	; 0x1256 <fputc>
    1034:	51 10       	cpse	r5, r1
    1036:	5a 94       	dec	r5
    1038:	f1 e0       	ldi	r31, 0x01	; 1
    103a:	8f 1a       	sub	r8, r31
    103c:	91 08       	sbc	r9, r1
    103e:	bf cf       	rjmp	.-130    	; 0xfbe <vfprintf+0x148>
    1040:	84 36       	cpi	r24, 0x64	; 100
    1042:	19 f0       	breq	.+6      	; 0x104a <vfprintf+0x1d4>
    1044:	89 36       	cpi	r24, 0x69	; 105
    1046:	09 f0       	breq	.+2      	; 0x104a <vfprintf+0x1d4>
    1048:	77 c0       	rjmp	.+238    	; 0x1138 <vfprintf+0x2c2>
    104a:	f8 01       	movw	r30, r16
    104c:	37 fe       	sbrs	r3, 7
    104e:	6b c0       	rjmp	.+214    	; 0x1126 <vfprintf+0x2b0>
    1050:	60 81       	ld	r22, Z
    1052:	71 81       	ldd	r23, Z+1	; 0x01
    1054:	82 81       	ldd	r24, Z+2	; 0x02
    1056:	93 81       	ldd	r25, Z+3	; 0x03
    1058:	0c 5f       	subi	r16, 0xFC	; 252
    105a:	1f 4f       	sbci	r17, 0xFF	; 255
    105c:	f3 2d       	mov	r31, r3
    105e:	ff 76       	andi	r31, 0x6F	; 111
    1060:	3f 2e       	mov	r3, r31
    1062:	97 ff       	sbrs	r25, 7
    1064:	09 c0       	rjmp	.+18     	; 0x1078 <vfprintf+0x202>
    1066:	90 95       	com	r25
    1068:	80 95       	com	r24
    106a:	70 95       	com	r23
    106c:	61 95       	neg	r22
    106e:	7f 4f       	sbci	r23, 0xFF	; 255
    1070:	8f 4f       	sbci	r24, 0xFF	; 255
    1072:	9f 4f       	sbci	r25, 0xFF	; 255
    1074:	68 94       	set
    1076:	37 f8       	bld	r3, 7
    1078:	2a e0       	ldi	r18, 0x0A	; 10
    107a:	30 e0       	ldi	r19, 0x00	; 0
    107c:	a5 01       	movw	r20, r10
    107e:	0e 94 5b 09 	call	0x12b6	; 0x12b6 <__ultoa_invert>
    1082:	c8 2e       	mov	r12, r24
    1084:	ca 18       	sub	r12, r10
    1086:	8c 2c       	mov	r8, r12
    1088:	43 2c       	mov	r4, r3
    108a:	36 fe       	sbrs	r3, 6
    108c:	0c c0       	rjmp	.+24     	; 0x10a6 <vfprintf+0x230>
    108e:	e8 94       	clt
    1090:	40 f8       	bld	r4, 0
    1092:	c9 14       	cp	r12, r9
    1094:	40 f4       	brcc	.+16     	; 0x10a6 <vfprintf+0x230>
    1096:	34 fe       	sbrs	r3, 4
    1098:	05 c0       	rjmp	.+10     	; 0x10a4 <vfprintf+0x22e>
    109a:	32 fc       	sbrc	r3, 2
    109c:	03 c0       	rjmp	.+6      	; 0x10a4 <vfprintf+0x22e>
    109e:	f3 2d       	mov	r31, r3
    10a0:	fe 7e       	andi	r31, 0xEE	; 238
    10a2:	4f 2e       	mov	r4, r31
    10a4:	89 2c       	mov	r8, r9
    10a6:	44 fe       	sbrs	r4, 4
    10a8:	95 c0       	rjmp	.+298    	; 0x11d4 <vfprintf+0x35e>
    10aa:	fe 01       	movw	r30, r28
    10ac:	ec 0d       	add	r30, r12
    10ae:	f1 1d       	adc	r31, r1
    10b0:	80 81       	ld	r24, Z
    10b2:	80 33       	cpi	r24, 0x30	; 48
    10b4:	09 f0       	breq	.+2      	; 0x10b8 <vfprintf+0x242>
    10b6:	87 c0       	rjmp	.+270    	; 0x11c6 <vfprintf+0x350>
    10b8:	24 2d       	mov	r18, r4
    10ba:	29 7e       	andi	r18, 0xE9	; 233
    10bc:	42 2e       	mov	r4, r18
    10be:	84 2d       	mov	r24, r4
    10c0:	88 70       	andi	r24, 0x08	; 8
    10c2:	58 2e       	mov	r5, r24
    10c4:	43 fc       	sbrc	r4, 3
    10c6:	95 c0       	rjmp	.+298    	; 0x11f2 <vfprintf+0x37c>
    10c8:	40 fe       	sbrs	r4, 0
    10ca:	8f c0       	rjmp	.+286    	; 0x11ea <vfprintf+0x374>
    10cc:	9c 2c       	mov	r9, r12
    10ce:	82 14       	cp	r8, r2
    10d0:	18 f4       	brcc	.+6      	; 0x10d8 <vfprintf+0x262>
    10d2:	2c 0c       	add	r2, r12
    10d4:	92 2c       	mov	r9, r2
    10d6:	98 18       	sub	r9, r8
    10d8:	44 fe       	sbrs	r4, 4
    10da:	91 c0       	rjmp	.+290    	; 0x11fe <vfprintf+0x388>
    10dc:	b7 01       	movw	r22, r14
    10de:	80 e3       	ldi	r24, 0x30	; 48
    10e0:	90 e0       	ldi	r25, 0x00	; 0
    10e2:	0e 94 2b 09 	call	0x1256	; 0x1256 <fputc>
    10e6:	42 fe       	sbrs	r4, 2
    10e8:	09 c0       	rjmp	.+18     	; 0x10fc <vfprintf+0x286>
    10ea:	88 e7       	ldi	r24, 0x78	; 120
    10ec:	90 e0       	ldi	r25, 0x00	; 0
    10ee:	41 fe       	sbrs	r4, 1
    10f0:	02 c0       	rjmp	.+4      	; 0x10f6 <vfprintf+0x280>
    10f2:	88 e5       	ldi	r24, 0x58	; 88
    10f4:	90 e0       	ldi	r25, 0x00	; 0
    10f6:	b7 01       	movw	r22, r14
    10f8:	0e 94 2b 09 	call	0x1256	; 0x1256 <fputc>
    10fc:	c9 14       	cp	r12, r9
    10fe:	08 f4       	brcc	.+2      	; 0x1102 <vfprintf+0x28c>
    1100:	8a c0       	rjmp	.+276    	; 0x1216 <vfprintf+0x3a0>
    1102:	ca 94       	dec	r12
    1104:	d1 2c       	mov	r13, r1
    1106:	9f ef       	ldi	r25, 0xFF	; 255
    1108:	c9 1a       	sub	r12, r25
    110a:	d9 0a       	sbc	r13, r25
    110c:	ca 0c       	add	r12, r10
    110e:	db 1c       	adc	r13, r11
    1110:	f6 01       	movw	r30, r12
    1112:	82 91       	ld	r24, -Z
    1114:	6f 01       	movw	r12, r30
    1116:	b7 01       	movw	r22, r14
    1118:	90 e0       	ldi	r25, 0x00	; 0
    111a:	0e 94 2b 09 	call	0x1256	; 0x1256 <fputc>
    111e:	ac 14       	cp	r10, r12
    1120:	bd 04       	cpc	r11, r13
    1122:	b1 f7       	brne	.-20     	; 0x1110 <vfprintf+0x29a>
    1124:	4f cf       	rjmp	.-354    	; 0xfc4 <vfprintf+0x14e>
    1126:	60 81       	ld	r22, Z
    1128:	71 81       	ldd	r23, Z+1	; 0x01
    112a:	07 2e       	mov	r0, r23
    112c:	00 0c       	add	r0, r0
    112e:	88 0b       	sbc	r24, r24
    1130:	99 0b       	sbc	r25, r25
    1132:	0e 5f       	subi	r16, 0xFE	; 254
    1134:	1f 4f       	sbci	r17, 0xFF	; 255
    1136:	92 cf       	rjmp	.-220    	; 0x105c <vfprintf+0x1e6>
    1138:	d3 2c       	mov	r13, r3
    113a:	e8 94       	clt
    113c:	d4 f8       	bld	r13, 4
    113e:	2a e0       	ldi	r18, 0x0A	; 10
    1140:	30 e0       	ldi	r19, 0x00	; 0
    1142:	85 37       	cpi	r24, 0x75	; 117
    1144:	39 f1       	breq	.+78     	; 0x1194 <vfprintf+0x31e>
    1146:	23 2d       	mov	r18, r3
    1148:	29 7f       	andi	r18, 0xF9	; 249
    114a:	d2 2e       	mov	r13, r18
    114c:	8f 36       	cpi	r24, 0x6F	; 111
    114e:	01 f1       	breq	.+64     	; 0x1190 <vfprintf+0x31a>
    1150:	48 f4       	brcc	.+18     	; 0x1164 <vfprintf+0x2ee>
    1152:	88 35       	cpi	r24, 0x58	; 88
    1154:	a9 f0       	breq	.+42     	; 0x1180 <vfprintf+0x30a>
    1156:	f7 01       	movw	r30, r14
    1158:	86 81       	ldd	r24, Z+6	; 0x06
    115a:	97 81       	ldd	r25, Z+7	; 0x07
    115c:	2b 96       	adiw	r28, 0x0b	; 11
    115e:	e2 e1       	ldi	r30, 0x12	; 18
    1160:	0c 94 d5 09 	jmp	0x13aa	; 0x13aa <__epilogue_restores__>
    1164:	80 37       	cpi	r24, 0x70	; 112
    1166:	49 f0       	breq	.+18     	; 0x117a <vfprintf+0x304>
    1168:	88 37       	cpi	r24, 0x78	; 120
    116a:	a9 f7       	brne	.-22     	; 0x1156 <vfprintf+0x2e0>
    116c:	d4 fe       	sbrs	r13, 4
    116e:	02 c0       	rjmp	.+4      	; 0x1174 <vfprintf+0x2fe>
    1170:	68 94       	set
    1172:	d2 f8       	bld	r13, 2
    1174:	20 e1       	ldi	r18, 0x10	; 16
    1176:	30 e0       	ldi	r19, 0x00	; 0
    1178:	0d c0       	rjmp	.+26     	; 0x1194 <vfprintf+0x31e>
    117a:	68 94       	set
    117c:	d4 f8       	bld	r13, 4
    117e:	f6 cf       	rjmp	.-20     	; 0x116c <vfprintf+0x2f6>
    1180:	34 fe       	sbrs	r3, 4
    1182:	03 c0       	rjmp	.+6      	; 0x118a <vfprintf+0x314>
    1184:	82 2f       	mov	r24, r18
    1186:	86 60       	ori	r24, 0x06	; 6
    1188:	d8 2e       	mov	r13, r24
    118a:	20 e1       	ldi	r18, 0x10	; 16
    118c:	32 e0       	ldi	r19, 0x02	; 2
    118e:	02 c0       	rjmp	.+4      	; 0x1194 <vfprintf+0x31e>
    1190:	28 e0       	ldi	r18, 0x08	; 8
    1192:	30 e0       	ldi	r19, 0x00	; 0
    1194:	f8 01       	movw	r30, r16
    1196:	d7 fe       	sbrs	r13, 7
    1198:	0f c0       	rjmp	.+30     	; 0x11b8 <vfprintf+0x342>
    119a:	60 81       	ld	r22, Z
    119c:	71 81       	ldd	r23, Z+1	; 0x01
    119e:	82 81       	ldd	r24, Z+2	; 0x02
    11a0:	93 81       	ldd	r25, Z+3	; 0x03
    11a2:	0c 5f       	subi	r16, 0xFC	; 252
    11a4:	1f 4f       	sbci	r17, 0xFF	; 255
    11a6:	a5 01       	movw	r20, r10
    11a8:	0e 94 5b 09 	call	0x12b6	; 0x12b6 <__ultoa_invert>
    11ac:	c8 2e       	mov	r12, r24
    11ae:	ca 18       	sub	r12, r10
    11b0:	3d 2c       	mov	r3, r13
    11b2:	e8 94       	clt
    11b4:	37 f8       	bld	r3, 7
    11b6:	67 cf       	rjmp	.-306    	; 0x1086 <vfprintf+0x210>
    11b8:	60 81       	ld	r22, Z
    11ba:	71 81       	ldd	r23, Z+1	; 0x01
    11bc:	90 e0       	ldi	r25, 0x00	; 0
    11be:	80 e0       	ldi	r24, 0x00	; 0
    11c0:	0e 5f       	subi	r16, 0xFE	; 254
    11c2:	1f 4f       	sbci	r17, 0xFF	; 255
    11c4:	f0 cf       	rjmp	.-32     	; 0x11a6 <vfprintf+0x330>
    11c6:	42 fc       	sbrc	r4, 2
    11c8:	02 c0       	rjmp	.+4      	; 0x11ce <vfprintf+0x358>
    11ca:	83 94       	inc	r8
    11cc:	78 cf       	rjmp	.-272    	; 0x10be <vfprintf+0x248>
    11ce:	83 94       	inc	r8
    11d0:	83 94       	inc	r8
    11d2:	75 cf       	rjmp	.-278    	; 0x10be <vfprintf+0x248>
    11d4:	84 2d       	mov	r24, r4
    11d6:	86 78       	andi	r24, 0x86	; 134
    11d8:	09 f4       	brne	.+2      	; 0x11dc <vfprintf+0x366>
    11da:	71 cf       	rjmp	.-286    	; 0x10be <vfprintf+0x248>
    11dc:	f6 cf       	rjmp	.-20     	; 0x11ca <vfprintf+0x354>
    11de:	b7 01       	movw	r22, r14
    11e0:	80 e2       	ldi	r24, 0x20	; 32
    11e2:	90 e0       	ldi	r25, 0x00	; 0
    11e4:	0e 94 2b 09 	call	0x1256	; 0x1256 <fputc>
    11e8:	83 94       	inc	r8
    11ea:	82 14       	cp	r8, r2
    11ec:	c0 f3       	brcs	.-16     	; 0x11de <vfprintf+0x368>
    11ee:	51 2c       	mov	r5, r1
    11f0:	73 cf       	rjmp	.-282    	; 0x10d8 <vfprintf+0x262>
    11f2:	52 2c       	mov	r5, r2
    11f4:	58 18       	sub	r5, r8
    11f6:	82 14       	cp	r8, r2
    11f8:	08 f4       	brcc	.+2      	; 0x11fc <vfprintf+0x386>
    11fa:	6e cf       	rjmp	.-292    	; 0x10d8 <vfprintf+0x262>
    11fc:	f8 cf       	rjmp	.-16     	; 0x11ee <vfprintf+0x378>
    11fe:	84 2d       	mov	r24, r4
    1200:	86 78       	andi	r24, 0x86	; 134
    1202:	09 f4       	brne	.+2      	; 0x1206 <vfprintf+0x390>
    1204:	7b cf       	rjmp	.-266    	; 0x10fc <vfprintf+0x286>
    1206:	8b e2       	ldi	r24, 0x2B	; 43
    1208:	41 fe       	sbrs	r4, 1
    120a:	80 e2       	ldi	r24, 0x20	; 32
    120c:	47 fc       	sbrc	r4, 7
    120e:	8d e2       	ldi	r24, 0x2D	; 45
    1210:	b7 01       	movw	r22, r14
    1212:	90 e0       	ldi	r25, 0x00	; 0
    1214:	71 cf       	rjmp	.-286    	; 0x10f8 <vfprintf+0x282>
    1216:	b7 01       	movw	r22, r14
    1218:	80 e3       	ldi	r24, 0x30	; 48
    121a:	90 e0       	ldi	r25, 0x00	; 0
    121c:	0e 94 2b 09 	call	0x1256	; 0x1256 <fputc>
    1220:	9a 94       	dec	r9
    1222:	6c cf       	rjmp	.-296    	; 0x10fc <vfprintf+0x286>
    1224:	8f ef       	ldi	r24, 0xFF	; 255
    1226:	9f ef       	ldi	r25, 0xFF	; 255
    1228:	99 cf       	rjmp	.-206    	; 0x115c <vfprintf+0x2e6>

0000122a <strnlen_P>:
strnlen_P():
    122a:	fc 01       	movw	r30, r24
    122c:	05 90       	lpm	r0, Z+
    122e:	61 50       	subi	r22, 0x01	; 1
    1230:	70 40       	sbci	r23, 0x00	; 0
    1232:	01 10       	cpse	r0, r1
    1234:	d8 f7       	brcc	.-10     	; 0x122c <strnlen_P+0x2>
    1236:	80 95       	com	r24
    1238:	90 95       	com	r25
    123a:	8e 0f       	add	r24, r30
    123c:	9f 1f       	adc	r25, r31
    123e:	08 95       	ret

00001240 <strnlen>:
strnlen():
    1240:	fc 01       	movw	r30, r24
    1242:	61 50       	subi	r22, 0x01	; 1
    1244:	70 40       	sbci	r23, 0x00	; 0
    1246:	01 90       	ld	r0, Z+
    1248:	01 10       	cpse	r0, r1
    124a:	d8 f7       	brcc	.-10     	; 0x1242 <strnlen+0x2>
    124c:	80 95       	com	r24
    124e:	90 95       	com	r25
    1250:	8e 0f       	add	r24, r30
    1252:	9f 1f       	adc	r25, r31
    1254:	08 95       	ret

00001256 <fputc>:
fputc():
    1256:	0f 93       	push	r16
    1258:	1f 93       	push	r17
    125a:	cf 93       	push	r28
    125c:	df 93       	push	r29
    125e:	18 2f       	mov	r17, r24
    1260:	09 2f       	mov	r16, r25
    1262:	eb 01       	movw	r28, r22
    1264:	8b 81       	ldd	r24, Y+3	; 0x03
    1266:	81 fd       	sbrc	r24, 1
    1268:	09 c0       	rjmp	.+18     	; 0x127c <fputc+0x26>
    126a:	1f ef       	ldi	r17, 0xFF	; 255
    126c:	0f ef       	ldi	r16, 0xFF	; 255
    126e:	81 2f       	mov	r24, r17
    1270:	90 2f       	mov	r25, r16
    1272:	df 91       	pop	r29
    1274:	cf 91       	pop	r28
    1276:	1f 91       	pop	r17
    1278:	0f 91       	pop	r16
    127a:	08 95       	ret
    127c:	82 ff       	sbrs	r24, 2
    127e:	14 c0       	rjmp	.+40     	; 0x12a8 <fputc+0x52>
    1280:	2e 81       	ldd	r18, Y+6	; 0x06
    1282:	3f 81       	ldd	r19, Y+7	; 0x07
    1284:	8c 81       	ldd	r24, Y+4	; 0x04
    1286:	9d 81       	ldd	r25, Y+5	; 0x05
    1288:	28 17       	cp	r18, r24
    128a:	39 07       	cpc	r19, r25
    128c:	3c f4       	brge	.+14     	; 0x129c <fputc+0x46>
    128e:	e8 81       	ld	r30, Y
    1290:	f9 81       	ldd	r31, Y+1	; 0x01
    1292:	cf 01       	movw	r24, r30
    1294:	01 96       	adiw	r24, 0x01	; 1
    1296:	99 83       	std	Y+1, r25	; 0x01
    1298:	88 83       	st	Y, r24
    129a:	10 83       	st	Z, r17
    129c:	8e 81       	ldd	r24, Y+6	; 0x06
    129e:	9f 81       	ldd	r25, Y+7	; 0x07
    12a0:	01 96       	adiw	r24, 0x01	; 1
    12a2:	9f 83       	std	Y+7, r25	; 0x07
    12a4:	8e 83       	std	Y+6, r24	; 0x06
    12a6:	e3 cf       	rjmp	.-58     	; 0x126e <fputc+0x18>
    12a8:	e8 85       	ldd	r30, Y+8	; 0x08
    12aa:	f9 85       	ldd	r31, Y+9	; 0x09
    12ac:	81 2f       	mov	r24, r17
    12ae:	09 95       	icall
    12b0:	89 2b       	or	r24, r25
    12b2:	a1 f3       	breq	.-24     	; 0x129c <fputc+0x46>
    12b4:	da cf       	rjmp	.-76     	; 0x126a <fputc+0x14>

000012b6 <__ultoa_invert>:
__ultoa_invert():
    12b6:	fa 01       	movw	r30, r20
    12b8:	aa 27       	eor	r26, r26
    12ba:	28 30       	cpi	r18, 0x08	; 8
    12bc:	51 f1       	breq	.+84     	; 0x1312 <__ultoa_invert+0x5c>
    12be:	20 31       	cpi	r18, 0x10	; 16
    12c0:	81 f1       	breq	.+96     	; 0x1322 <__ultoa_invert+0x6c>
    12c2:	e8 94       	clt
    12c4:	6f 93       	push	r22
    12c6:	6e 7f       	andi	r22, 0xFE	; 254
    12c8:	6e 5f       	subi	r22, 0xFE	; 254
    12ca:	7f 4f       	sbci	r23, 0xFF	; 255
    12cc:	8f 4f       	sbci	r24, 0xFF	; 255
    12ce:	9f 4f       	sbci	r25, 0xFF	; 255
    12d0:	af 4f       	sbci	r26, 0xFF	; 255
    12d2:	b1 e0       	ldi	r27, 0x01	; 1
    12d4:	3e d0       	rcall	.+124    	; 0x1352 <__ultoa_invert+0x9c>
    12d6:	b4 e0       	ldi	r27, 0x04	; 4
    12d8:	3c d0       	rcall	.+120    	; 0x1352 <__ultoa_invert+0x9c>
    12da:	67 0f       	add	r22, r23
    12dc:	78 1f       	adc	r23, r24
    12de:	89 1f       	adc	r24, r25
    12e0:	9a 1f       	adc	r25, r26
    12e2:	a1 1d       	adc	r26, r1
    12e4:	68 0f       	add	r22, r24
    12e6:	79 1f       	adc	r23, r25
    12e8:	8a 1f       	adc	r24, r26
    12ea:	91 1d       	adc	r25, r1
    12ec:	a1 1d       	adc	r26, r1
    12ee:	6a 0f       	add	r22, r26
    12f0:	71 1d       	adc	r23, r1
    12f2:	81 1d       	adc	r24, r1
    12f4:	91 1d       	adc	r25, r1
    12f6:	a1 1d       	adc	r26, r1
    12f8:	20 d0       	rcall	.+64     	; 0x133a <__ultoa_invert+0x84>
    12fa:	09 f4       	brne	.+2      	; 0x12fe <__ultoa_invert+0x48>
    12fc:	68 94       	set
    12fe:	3f 91       	pop	r19
    1300:	2a e0       	ldi	r18, 0x0A	; 10
    1302:	26 9f       	mul	r18, r22
    1304:	11 24       	eor	r1, r1
    1306:	30 19       	sub	r19, r0
    1308:	30 5d       	subi	r19, 0xD0	; 208
    130a:	31 93       	st	Z+, r19
    130c:	de f6       	brtc	.-74     	; 0x12c4 <__ultoa_invert+0xe>
    130e:	cf 01       	movw	r24, r30
    1310:	08 95       	ret
    1312:	46 2f       	mov	r20, r22
    1314:	47 70       	andi	r20, 0x07	; 7
    1316:	40 5d       	subi	r20, 0xD0	; 208
    1318:	41 93       	st	Z+, r20
    131a:	b3 e0       	ldi	r27, 0x03	; 3
    131c:	0f d0       	rcall	.+30     	; 0x133c <__ultoa_invert+0x86>
    131e:	c9 f7       	brne	.-14     	; 0x1312 <__ultoa_invert+0x5c>
    1320:	f6 cf       	rjmp	.-20     	; 0x130e <__ultoa_invert+0x58>
    1322:	46 2f       	mov	r20, r22
    1324:	4f 70       	andi	r20, 0x0F	; 15
    1326:	40 5d       	subi	r20, 0xD0	; 208
    1328:	4a 33       	cpi	r20, 0x3A	; 58
    132a:	18 f0       	brcs	.+6      	; 0x1332 <__ultoa_invert+0x7c>
    132c:	49 5d       	subi	r20, 0xD9	; 217
    132e:	31 fd       	sbrc	r19, 1
    1330:	40 52       	subi	r20, 0x20	; 32
    1332:	41 93       	st	Z+, r20
    1334:	02 d0       	rcall	.+4      	; 0x133a <__ultoa_invert+0x84>
    1336:	a9 f7       	brne	.-22     	; 0x1322 <__ultoa_invert+0x6c>
    1338:	ea cf       	rjmp	.-44     	; 0x130e <__ultoa_invert+0x58>
    133a:	b4 e0       	ldi	r27, 0x04	; 4
    133c:	a6 95       	lsr	r26
    133e:	97 95       	ror	r25
    1340:	87 95       	ror	r24
    1342:	77 95       	ror	r23
    1344:	67 95       	ror	r22
    1346:	ba 95       	dec	r27
    1348:	c9 f7       	brne	.-14     	; 0x133c <__ultoa_invert+0x86>
    134a:	00 97       	sbiw	r24, 0x00	; 0
    134c:	61 05       	cpc	r22, r1
    134e:	71 05       	cpc	r23, r1
    1350:	08 95       	ret
    1352:	9b 01       	movw	r18, r22
    1354:	ac 01       	movw	r20, r24
    1356:	0a 2e       	mov	r0, r26
    1358:	06 94       	lsr	r0
    135a:	57 95       	ror	r21
    135c:	47 95       	ror	r20
    135e:	37 95       	ror	r19
    1360:	27 95       	ror	r18
    1362:	ba 95       	dec	r27
    1364:	c9 f7       	brne	.-14     	; 0x1358 <__ultoa_invert+0xa2>
    1366:	62 0f       	add	r22, r18
    1368:	73 1f       	adc	r23, r19
    136a:	84 1f       	adc	r24, r20
    136c:	95 1f       	adc	r25, r21
    136e:	a0 1d       	adc	r26, r0
    1370:	08 95       	ret

00001372 <__prologue_saves__>:
__prologue_saves__():
/home/jenkins-mingw32/workspace/avr-gcc-staging/label/Ubuntu14.04x64-mingw32/gcc-build/avr/avr5/libgcc/../../../../gcc/libgcc/config/avr/lib1funcs.S:2169
    1372:	2f 92       	push	r2
/home/jenkins-mingw32/workspace/avr-gcc-staging/label/Ubuntu14.04x64-mingw32/gcc-build/avr/avr5/libgcc/../../../../gcc/libgcc/config/avr/lib1funcs.S:2170
    1374:	3f 92       	push	r3
/home/jenkins-mingw32/workspace/avr-gcc-staging/label/Ubuntu14.04x64-mingw32/gcc-build/avr/avr5/libgcc/../../../../gcc/libgcc/config/avr/lib1funcs.S:2171
    1376:	4f 92       	push	r4
/home/jenkins-mingw32/workspace/avr-gcc-staging/label/Ubuntu14.04x64-mingw32/gcc-build/avr/avr5/libgcc/../../../../gcc/libgcc/config/avr/lib1funcs.S:2172
    1378:	5f 92       	push	r5
/home/jenkins-mingw32/workspace/avr-gcc-staging/label/Ubuntu14.04x64-mingw32/gcc-build/avr/avr5/libgcc/../../../../gcc/libgcc/config/avr/lib1funcs.S:2173
    137a:	6f 92       	push	r6
/home/jenkins-mingw32/workspace/avr-gcc-staging/label/Ubuntu14.04x64-mingw32/gcc-build/avr/avr5/libgcc/../../../../gcc/libgcc/config/avr/lib1funcs.S:2174
    137c:	7f 92       	push	r7
/home/jenkins-mingw32/workspace/avr-gcc-staging/label/Ubuntu14.04x64-mingw32/gcc-build/avr/avr5/libgcc/../../../../gcc/libgcc/config/avr/lib1funcs.S:2175
    137e:	8f 92       	push	r8
/home/jenkins-mingw32/workspace/avr-gcc-staging/label/Ubuntu14.04x64-mingw32/gcc-build/avr/avr5/libgcc/../../../../gcc/libgcc/config/avr/lib1funcs.S:2176
    1380:	9f 92       	push	r9
/home/jenkins-mingw32/workspace/avr-gcc-staging/label/Ubuntu14.04x64-mingw32/gcc-build/avr/avr5/libgcc/../../../../gcc/libgcc/config/avr/lib1funcs.S:2177
    1382:	af 92       	push	r10
/home/jenkins-mingw32/workspace/avr-gcc-staging/label/Ubuntu14.04x64-mingw32/gcc-build/avr/avr5/libgcc/../../../../gcc/libgcc/config/avr/lib1funcs.S:2178
    1384:	bf 92       	push	r11
/home/jenkins-mingw32/workspace/avr-gcc-staging/label/Ubuntu14.04x64-mingw32/gcc-build/avr/avr5/libgcc/../../../../gcc/libgcc/config/avr/lib1funcs.S:2179
    1386:	cf 92       	push	r12
/home/jenkins-mingw32/workspace/avr-gcc-staging/label/Ubuntu14.04x64-mingw32/gcc-build/avr/avr5/libgcc/../../../../gcc/libgcc/config/avr/lib1funcs.S:2180
    1388:	df 92       	push	r13
/home/jenkins-mingw32/workspace/avr-gcc-staging/label/Ubuntu14.04x64-mingw32/gcc-build/avr/avr5/libgcc/../../../../gcc/libgcc/config/avr/lib1funcs.S:2181
    138a:	ef 92       	push	r14
/home/jenkins-mingw32/workspace/avr-gcc-staging/label/Ubuntu14.04x64-mingw32/gcc-build/avr/avr5/libgcc/../../../../gcc/libgcc/config/avr/lib1funcs.S:2182
    138c:	ff 92       	push	r15
/home/jenkins-mingw32/workspace/avr-gcc-staging/label/Ubuntu14.04x64-mingw32/gcc-build/avr/avr5/libgcc/../../../../gcc/libgcc/config/avr/lib1funcs.S:2183
    138e:	0f 93       	push	r16
/home/jenkins-mingw32/workspace/avr-gcc-staging/label/Ubuntu14.04x64-mingw32/gcc-build/avr/avr5/libgcc/../../../../gcc/libgcc/config/avr/lib1funcs.S:2184
    1390:	1f 93       	push	r17
/home/jenkins-mingw32/workspace/avr-gcc-staging/label/Ubuntu14.04x64-mingw32/gcc-build/avr/avr5/libgcc/../../../../gcc/libgcc/config/avr/lib1funcs.S:2185
    1392:	cf 93       	push	r28
/home/jenkins-mingw32/workspace/avr-gcc-staging/label/Ubuntu14.04x64-mingw32/gcc-build/avr/avr5/libgcc/../../../../gcc/libgcc/config/avr/lib1funcs.S:2186
    1394:	df 93       	push	r29
/home/jenkins-mingw32/workspace/avr-gcc-staging/label/Ubuntu14.04x64-mingw32/gcc-build/avr/avr5/libgcc/../../../../gcc/libgcc/config/avr/lib1funcs.S:2200
    1396:	cd b7       	in	r28, 0x3d	; 61
/home/jenkins-mingw32/workspace/avr-gcc-staging/label/Ubuntu14.04x64-mingw32/gcc-build/avr/avr5/libgcc/../../../../gcc/libgcc/config/avr/lib1funcs.S:2201
    1398:	de b7       	in	r29, 0x3e	; 62
/home/jenkins-mingw32/workspace/avr-gcc-staging/label/Ubuntu14.04x64-mingw32/gcc-build/avr/avr5/libgcc/../../../../gcc/libgcc/config/avr/lib1funcs.S:2202
    139a:	ca 1b       	sub	r28, r26
/home/jenkins-mingw32/workspace/avr-gcc-staging/label/Ubuntu14.04x64-mingw32/gcc-build/avr/avr5/libgcc/../../../../gcc/libgcc/config/avr/lib1funcs.S:2203
    139c:	db 0b       	sbc	r29, r27
/home/jenkins-mingw32/workspace/avr-gcc-staging/label/Ubuntu14.04x64-mingw32/gcc-build/avr/avr5/libgcc/../../../../gcc/libgcc/config/avr/lib1funcs.S:2204
    139e:	0f b6       	in	r0, 0x3f	; 63
/home/jenkins-mingw32/workspace/avr-gcc-staging/label/Ubuntu14.04x64-mingw32/gcc-build/avr/avr5/libgcc/../../../../gcc/libgcc/config/avr/lib1funcs.S:2205
    13a0:	f8 94       	cli
/home/jenkins-mingw32/workspace/avr-gcc-staging/label/Ubuntu14.04x64-mingw32/gcc-build/avr/avr5/libgcc/../../../../gcc/libgcc/config/avr/lib1funcs.S:2206
    13a2:	de bf       	out	0x3e, r29	; 62
/home/jenkins-mingw32/workspace/avr-gcc-staging/label/Ubuntu14.04x64-mingw32/gcc-build/avr/avr5/libgcc/../../../../gcc/libgcc/config/avr/lib1funcs.S:2207
    13a4:	0f be       	out	0x3f, r0	; 63
/home/jenkins-mingw32/workspace/avr-gcc-staging/label/Ubuntu14.04x64-mingw32/gcc-build/avr/avr5/libgcc/../../../../gcc/libgcc/config/avr/lib1funcs.S:2208
    13a6:	cd bf       	out	0x3d, r28	; 61
/home/jenkins-mingw32/workspace/avr-gcc-staging/label/Ubuntu14.04x64-mingw32/gcc-build/avr/avr5/libgcc/../../../../gcc/libgcc/config/avr/lib1funcs.S:2211
    13a8:	09 94       	ijmp

000013aa <__epilogue_restores__>:
__epilogue_restores__():
/home/jenkins-mingw32/workspace/avr-gcc-staging/label/Ubuntu14.04x64-mingw32/gcc-build/avr/avr5/libgcc/../../../../gcc/libgcc/config/avr/lib1funcs.S:2222
    13aa:	2a 88       	ldd	r2, Y+18	; 0x12
/home/jenkins-mingw32/workspace/avr-gcc-staging/label/Ubuntu14.04x64-mingw32/gcc-build/avr/avr5/libgcc/../../../../gcc/libgcc/config/avr/lib1funcs.S:2223
    13ac:	39 88       	ldd	r3, Y+17	; 0x11
/home/jenkins-mingw32/workspace/avr-gcc-staging/label/Ubuntu14.04x64-mingw32/gcc-build/avr/avr5/libgcc/../../../../gcc/libgcc/config/avr/lib1funcs.S:2224
    13ae:	48 88       	ldd	r4, Y+16	; 0x10
/home/jenkins-mingw32/workspace/avr-gcc-staging/label/Ubuntu14.04x64-mingw32/gcc-build/avr/avr5/libgcc/../../../../gcc/libgcc/config/avr/lib1funcs.S:2225
    13b0:	5f 84       	ldd	r5, Y+15	; 0x0f
/home/jenkins-mingw32/workspace/avr-gcc-staging/label/Ubuntu14.04x64-mingw32/gcc-build/avr/avr5/libgcc/../../../../gcc/libgcc/config/avr/lib1funcs.S:2226
    13b2:	6e 84       	ldd	r6, Y+14	; 0x0e
/home/jenkins-mingw32/workspace/avr-gcc-staging/label/Ubuntu14.04x64-mingw32/gcc-build/avr/avr5/libgcc/../../../../gcc/libgcc/config/avr/lib1funcs.S:2227
    13b4:	7d 84       	ldd	r7, Y+13	; 0x0d
/home/jenkins-mingw32/workspace/avr-gcc-staging/label/Ubuntu14.04x64-mingw32/gcc-build/avr/avr5/libgcc/../../../../gcc/libgcc/config/avr/lib1funcs.S:2228
    13b6:	8c 84       	ldd	r8, Y+12	; 0x0c
/home/jenkins-mingw32/workspace/avr-gcc-staging/label/Ubuntu14.04x64-mingw32/gcc-build/avr/avr5/libgcc/../../../../gcc/libgcc/config/avr/lib1funcs.S:2229
    13b8:	9b 84       	ldd	r9, Y+11	; 0x0b
/home/jenkins-mingw32/workspace/avr-gcc-staging/label/Ubuntu14.04x64-mingw32/gcc-build/avr/avr5/libgcc/../../../../gcc/libgcc/config/avr/lib1funcs.S:2230
    13ba:	aa 84       	ldd	r10, Y+10	; 0x0a
/home/jenkins-mingw32/workspace/avr-gcc-staging/label/Ubuntu14.04x64-mingw32/gcc-build/avr/avr5/libgcc/../../../../gcc/libgcc/config/avr/lib1funcs.S:2231
    13bc:	b9 84       	ldd	r11, Y+9	; 0x09
/home/jenkins-mingw32/workspace/avr-gcc-staging/label/Ubuntu14.04x64-mingw32/gcc-build/avr/avr5/libgcc/../../../../gcc/libgcc/config/avr/lib1funcs.S:2232
    13be:	c8 84       	ldd	r12, Y+8	; 0x08
/home/jenkins-mingw32/workspace/avr-gcc-staging/label/Ubuntu14.04x64-mingw32/gcc-build/avr/avr5/libgcc/../../../../gcc/libgcc/config/avr/lib1funcs.S:2233
    13c0:	df 80       	ldd	r13, Y+7	; 0x07
/home/jenkins-mingw32/workspace/avr-gcc-staging/label/Ubuntu14.04x64-mingw32/gcc-build/avr/avr5/libgcc/../../../../gcc/libgcc/config/avr/lib1funcs.S:2234
    13c2:	ee 80       	ldd	r14, Y+6	; 0x06
/home/jenkins-mingw32/workspace/avr-gcc-staging/label/Ubuntu14.04x64-mingw32/gcc-build/avr/avr5/libgcc/../../../../gcc/libgcc/config/avr/lib1funcs.S:2235
    13c4:	fd 80       	ldd	r15, Y+5	; 0x05
/home/jenkins-mingw32/workspace/avr-gcc-staging/label/Ubuntu14.04x64-mingw32/gcc-build/avr/avr5/libgcc/../../../../gcc/libgcc/config/avr/lib1funcs.S:2236
    13c6:	0c 81       	ldd	r16, Y+4	; 0x04
/home/jenkins-mingw32/workspace/avr-gcc-staging/label/Ubuntu14.04x64-mingw32/gcc-build/avr/avr5/libgcc/../../../../gcc/libgcc/config/avr/lib1funcs.S:2237
    13c8:	1b 81       	ldd	r17, Y+3	; 0x03
/home/jenkins-mingw32/workspace/avr-gcc-staging/label/Ubuntu14.04x64-mingw32/gcc-build/avr/avr5/libgcc/../../../../gcc/libgcc/config/avr/lib1funcs.S:2238
    13ca:	aa 81       	ldd	r26, Y+2	; 0x02
/home/jenkins-mingw32/workspace/avr-gcc-staging/label/Ubuntu14.04x64-mingw32/gcc-build/avr/avr5/libgcc/../../../../gcc/libgcc/config/avr/lib1funcs.S:2252
    13cc:	b9 81       	ldd	r27, Y+1	; 0x01
/home/jenkins-mingw32/workspace/avr-gcc-staging/label/Ubuntu14.04x64-mingw32/gcc-build/avr/avr5/libgcc/../../../../gcc/libgcc/config/avr/lib1funcs.S:2253
    13ce:	ce 0f       	add	r28, r30
/home/jenkins-mingw32/workspace/avr-gcc-staging/label/Ubuntu14.04x64-mingw32/gcc-build/avr/avr5/libgcc/../../../../gcc/libgcc/config/avr/lib1funcs.S:2254
    13d0:	d1 1d       	adc	r29, r1
/home/jenkins-mingw32/workspace/avr-gcc-staging/label/Ubuntu14.04x64-mingw32/gcc-build/avr/avr5/libgcc/../../../../gcc/libgcc/config/avr/lib1funcs.S:2255
    13d2:	0f b6       	in	r0, 0x3f	; 63
/home/jenkins-mingw32/workspace/avr-gcc-staging/label/Ubuntu14.04x64-mingw32/gcc-build/avr/avr5/libgcc/../../../../gcc/libgcc/config/avr/lib1funcs.S:2256
    13d4:	f8 94       	cli
/home/jenkins-mingw32/workspace/avr-gcc-staging/label/Ubuntu14.04x64-mingw32/gcc-build/avr/avr5/libgcc/../../../../gcc/libgcc/config/avr/lib1funcs.S:2257
    13d6:	de bf       	out	0x3e, r29	; 62
/home/jenkins-mingw32/workspace/avr-gcc-staging/label/Ubuntu14.04x64-mingw32/gcc-build/avr/avr5/libgcc/../../../../gcc/libgcc/config/avr/lib1funcs.S:2258
    13d8:	0f be       	out	0x3f, r0	; 63
/home/jenkins-mingw32/workspace/avr-gcc-staging/label/Ubuntu14.04x64-mingw32/gcc-build/avr/avr5/libgcc/../../../../gcc/libgcc/config/avr/lib1funcs.S:2259
    13da:	cd bf       	out	0x3d, r28	; 61
/home/jenkins-mingw32/workspace/avr-gcc-staging/label/Ubuntu14.04x64-mingw32/gcc-build/avr/avr5/libgcc/../../../../gcc/libgcc/config/avr/lib1funcs.S:2260
    13dc:	ed 01       	movw	r28, r26
/home/jenkins-mingw32/workspace/avr-gcc-staging/label/Ubuntu14.04x64-mingw32/gcc-build/avr/avr5/libgcc/../../../../gcc/libgcc/config/avr/lib1funcs.S:2263
    13de:	08 95       	ret

000013e0 <_exit>:
exit():
/home/jenkins-mingw32/workspace/avr-gcc-staging/label/Ubuntu14.04x64-mingw32/gcc-build/avr/avr5/libgcc/../../../../gcc/libgcc/config/avr/lib1funcs.S:2278
    13e0:	f8 94       	cli

000013e2 <__stop_program>:
__stop_program():
/home/jenkins-mingw32/workspace/avr-gcc-staging/label/Ubuntu14.04x64-mingw32/gcc-build/avr/avr5/libgcc/../../../../gcc/libgcc/config/avr/lib1funcs.S:2280
    13e2:	ff cf       	rjmp	.-2      	; 0x13e2 <__stop_program>
